
build/benchmark:     file format elf64-littleriscv


Disassembly of section .text:

00000000000100e8 <exit>:
   100e8:	1141                	c.addi	sp,-16
   100ea:	4581                	c.li	a1,0
   100ec:	e022                	c.sdsp	s0,0(sp)
   100ee:	e406                	c.sdsp	ra,8(sp)
   100f0:	842a                	c.mv	s0,a0
   100f2:	5ec140ef          	jal	ra,246de <__call_exitprocs>
   100f6:	6e01b503          	ld	a0,1760(gp) # 317f0 <_global_impure_ptr>
   100fa:	6d3c                	c.ld	a5,88(a0)
   100fc:	c391                	c.beqz	a5,10100 <exit+0x18>
   100fe:	9782                	c.jalr	a5
   10100:	8522                	c.mv	a0,s0
   10102:	3bb1c0ef          	jal	ra,2ccbc <_exit>

0000000000010106 <main>:
   10106:	07d00793          	addi	a5,zero,125
   1010a:	178e                	c.slli	a5,0x23
   1010c:	ce010113          	addi	sp,sp,-800
   10110:	04078793          	addi	a5,a5,64
   10114:	4705                	c.li	a4,1
   10116:	e0be                	c.sdsp	a5,64(sp)
   10118:	1716                	c.slli	a4,0x25
   1011a:	6785                	c.lui	a5,0x1
   1011c:	0721                	c.addi	a4,8
   1011e:	fa078793          	addi	a5,a5,-96 # fa0 <exit-0xf148>
   10122:	4505                	c.li	a0,1
   10124:	30113c23          	sd	ra,792(sp)
   10128:	30813823          	sd	s0,784(sp)
   1012c:	31213023          	sd	s2,768(sp)
   10130:	2f313c23          	sd	s3,760(sp)
   10134:	2f413823          	sd	s4,752(sp)
   10138:	2f513423          	sd	s5,744(sp)
   1013c:	2f613023          	sd	s6,736(sp)
   10140:	2d713c23          	sd	s7,728(sp)
   10144:	2d813823          	sd	s8,720(sp)
   10148:	2d913423          	sd	s9,712(sp)
   1014c:	2da13023          	sd	s10,704(sp)
   10150:	2bb13c23          	sd	s11,696(sp)
   10154:	fc3a                	c.sdsp	a4,56(sp)
   10156:	c4be                	c.swsp	a5,72(sp)
   10158:	30913423          	sd	s1,776(sp)
   1015c:	2a813427          	fsd	fs0,680(sp)
   10160:	2a913027          	fsd	fs1,672(sp)
   10164:	29213c27          	fsd	fs2,664(sp)
   10168:	44c110ef          	jal	ra,215b4 <malloc>
   1016c:	87aa                	c.mv	a5,a0
   1016e:	4505                	c.li	a0,1
   10170:	72f1bc23          	sd	a5,1848(gp) # 31848 <msg>
   10174:	440110ef          	jal	ra,215b4 <malloc>
   10178:	87aa                	c.mv	a5,a0
   1017a:	4505                	c.li	a0,1
   1017c:	74f1b423          	sd	a5,1864(gp) # 31858 <ad>
   10180:	434110ef          	jal	ra,215b4 <malloc>
   10184:	87aa                	c.mv	a5,a0
   10186:	03810d93          	addi	s11,sp,56
   1018a:	4505                	c.li	a0,1
   1018c:	74f1b023          	sd	a5,1856(gp) # 31850 <ct>
   10190:	e86e                	c.sdsp	s11,16(sp)
   10192:	422110ef          	jal	ra,215b4 <malloc>
   10196:	0f810913          	addi	s2,sp,248
   1019a:	05010993          	addi	s3,sp,80
   1019e:	09810a13          	addi	s4,sp,152
   101a2:	06810a93          	addi	s5,sp,104
   101a6:	0c810b13          	addi	s6,sp,200
   101aa:	08010d13          	addi	s10,sp,128
   101ae:	8c4a                	c.mv	s8,s2
   101b0:	f44a                	c.sdsp	s2,40(sp)
   101b2:	e44e                	c.sdsp	s3,8(sp)
   101b4:	ec52                	c.sdsp	s4,24(sp)
   101b6:	e056                	c.sdsp	s5,0(sp)
   101b8:	f05a                	c.sdsp	s6,32(sp)
   101ba:	72a1b823          	sd	a0,1840(gp) # 31840 <decrypted_msg>
   101be:	15010c93          	addi	s9,sp,336
   101c2:	8bea                	c.mv	s7,s10
   101c4:	4401                	c.li	s0,0
   101c6:	896e                	c.mv	s2,s11
   101c8:	00092483          	lw	s1,0(s2)
   101cc:	45c1                	c.li	a1,16
   101ce:	1a010d93          	addi	s11,sp,416
   101d2:	8526                	c.mv	a0,s1
   101d4:	6aa000ef          	jal	ra,1087e <benchmark_restart>
   101d8:	123c                	c.addi4spn	a5,sp,296
   101da:	008785b3          	add	a1,a5,s0
   101de:	864e                	c.mv	a2,s3
   101e0:	4501                	c.li	a0,0
   101e2:	774000ef          	jal	ra,10956 <benchmark_encryption>
   101e6:	8652                	c.mv	a2,s4
   101e8:	01b405b3          	add	a1,s0,s11
   101ec:	4501                	c.li	a0,0
   101ee:	14d000ef          	jal	ra,10b3a <benchmark_decryption>
   101f2:	1910                	c.addi4spn	a2,sp,176
   101f4:	03ac                	c.addi4spn	a1,sp,456
   101f6:	4501                	c.li	a0,0
   101f8:	327000ef          	jal	ra,10d1e <benchmark_decryption_final_ciphertext_stage>
   101fc:	8526                	c.mv	a0,s1
   101fe:	45c1                	c.li	a1,16
   10200:	67e000ef          	jal	ra,1087e <benchmark_restart>
   10204:	8656                	c.mv	a2,s5
   10206:	85e6                	c.mv	a1,s9
   10208:	4505                	c.li	a0,1
   1020a:	74c000ef          	jal	ra,10956 <benchmark_encryption>
   1020e:	1b9c                	c.addi4spn	a5,sp,496
   10210:	008785b3          	add	a1,a5,s0
   10214:	865a                	c.mv	a2,s6
   10216:	4505                	c.li	a0,1
   10218:	123000ef          	jal	ra,10b3a <benchmark_decryption>
   1021c:	1190                	c.addi4spn	a2,sp,224
   1021e:	0c2c                	c.addi4spn	a1,sp,536
   10220:	4505                	c.li	a0,1
   10222:	2fd000ef          	jal	ra,10d1e <benchmark_decryption_final_ciphertext_stage>
   10226:	45c1                	c.li	a1,16
   10228:	8526                	c.mv	a0,s1
   1022a:	654000ef          	jal	ra,1087e <benchmark_restart>
   1022e:	1abc                	c.addi4spn	a5,sp,376
   10230:	008785b3          	add	a1,a5,s0
   10234:	865e                	c.mv	a2,s7
   10236:	4509                	c.li	a0,2
   10238:	71e000ef          	jal	ra,10956 <benchmark_encryption>
   1023c:	049c                	c.addi4spn	a5,sp,576
   1023e:	008785b3          	add	a1,a5,s0
   10242:	8662                	c.mv	a2,s8
   10244:	4509                	c.li	a0,2
   10246:	0f5000ef          	jal	ra,10b3a <benchmark_decryption>
   1024a:	0a10                	c.addi4spn	a2,sp,272
   1024c:	14ac                	c.addi4spn	a1,sp,616
   1024e:	4509                	c.li	a0,2
   10250:	2cf000ef          	jal	ra,10d1e <benchmark_decryption_final_ciphertext_stage>
   10254:	0421                	c.addi	s0,8
   10256:	02800793          	addi	a5,zero,40
   1025a:	0911                	c.addi	s2,4
   1025c:	0991                	c.addi	s3,4
   1025e:	0a11                	c.addi	s4,4
   10260:	0ca1                	c.addi	s9,8
   10262:	0a91                	c.addi	s5,4
   10264:	0b11                	c.addi	s6,4
   10266:	0b91                	c.addi	s7,4
   10268:	0c11                	c.addi	s8,4
   1026a:	f4f41fe3          	bne	s0,a5,101c8 <main+0xc2>
   1026e:	0002e537          	lui	a0,0x2e
   10272:	46050513          	addi	a0,a0,1120 # 2e460 <__clzdi2+0x46>
   10276:	7922                	c.ldsp	s2,40(sp)
   10278:	409110ef          	jal	ra,21e80 <puts>
   1027c:	0002e7b7          	lui	a5,0x2e
   10280:	47878513          	addi	a0,a5,1144 # 2e478 <__clzdi2+0x5e>
   10284:	3fd110ef          	jal	ra,21e80 <puts>
   10288:	0002e8b7          	lui	a7,0x2e
   1028c:	0002e837          	lui	a6,0x2e
   10290:	0002e7b7          	lui	a5,0x2e
   10294:	0002e737          	lui	a4,0x2e
   10298:	0002e6b7          	lui	a3,0x2e
   1029c:	0002e637          	lui	a2,0x2e
   102a0:	0002e5b7          	lui	a1,0x2e
   102a4:	0002e537          	lui	a0,0x2e
   102a8:	50078793          	addi	a5,a5,1280 # 2e500 <__clzdi2+0xe6>
   102ac:	4e088893          	addi	a7,a7,1248 # 2e4e0 <__clzdi2+0xc6>
   102b0:	4f080813          	addi	a6,a6,1264 # 2e4f0 <__clzdi2+0xd6>
   102b4:	51070713          	addi	a4,a4,1296 # 2e510 <__clzdi2+0xf6>
   102b8:	52868693          	addi	a3,a3,1320 # 2e528 <__clzdi2+0x10e>
   102bc:	53860613          	addi	a2,a2,1336 # 2e538 <__clzdi2+0x11e>
   102c0:	55058593          	addi	a1,a1,1360 # 2e550 <__clzdi2+0x136>
   102c4:	56050513          	addi	a0,a0,1376 # 2e560 <__clzdi2+0x146>
   102c8:	30b110ef          	jal	ra,21dd2 <printf>
   102cc:	6701b487          	fld	fs1,1648(gp) # 31780 <__SDATA_BEGIN__>
   102d0:	84ee                	c.mv	s1,s11
   102d2:	0002ebb7          	lui	s7,0x2e
   102d6:	4d81                	c.li	s11,0
   102d8:	0002eb37          	lui	s6,0x2e
   102dc:	0002ea37          	lui	s4,0x2e
   102e0:	0002e9b7          	lui	s3,0x2e
   102e4:	0002ec37          	lui	s8,0x2e
   102e8:	0002ecb7          	lui	s9,0x2e
   102ec:	0002eab7          	lui	s5,0x2e
   102f0:	67c2                	c.ldsp	a5,16(sp)
   102f2:	4380                	c.lw	s0,0(a5)
   102f4:	67a2                	c.ldsp	a5,8(sp)
   102f6:	d2040453          	fcvt.d.w	fs0,s0
   102fa:	439c                	c.lw	a5,0(a5)
   102fc:	d21787d3          	fcvt.d.wu	fa5,a5
   10300:	1a87f7d3          	fdiv.d	fa5,fa5,fs0
   10304:	c2079753          	fcvt.w.d	a4,fa5,rtz
   10308:	d0077753          	fcvt.s.w	fa4,a4
   1030c:	0007081b          	addiw	a6,a4,0
   10310:	42070753          	fcvt.d.s	fa4,fa4
   10314:	a2e7a6d3          	feq.d	a3,fa5,fa4
   10318:	e299                	c.bnez	a3,1031e <main+0x218>
   1031a:	0017081b          	addiw	a6,a4,1
   1031e:	1238                	c.addi4spn	a4,sp,296
   10320:	976e                	c.add	a4,s11
   10322:	6318                	c.ld	a4,0(a4)
   10324:	598b0693          	addi	a3,s6,1432 # 2e598 <__clzdi2+0x17e>
   10328:	8622                	c.mv	a2,s0
   1032a:	d23777d3          	fcvt.d.lu	fa5,a4
   1032e:	5a8a0593          	addi	a1,s4,1448 # 2e5a8 <__clzdi2+0x18e>
   10332:	588b8713          	addi	a4,s7,1416 # 2e588 <__clzdi2+0x16e>
   10336:	1297f7d3          	fmul.d	fa5,fa5,fs1
   1033a:	5b898513          	addi	a0,s3,1464 # 2e5b8 <__clzdi2+0x19e>
   1033e:	e20788d3          	fmv.x.d	a7,fa5
   10342:	291110ef          	jal	ra,21dd2 <printf>
   10346:	6782                	c.ldsp	a5,0(sp)
   10348:	439c                	c.lw	a5,0(a5)
   1034a:	d21787d3          	fcvt.d.wu	fa5,a5
   1034e:	1a87f7d3          	fdiv.d	fa5,fa5,fs0
   10352:	c2079753          	fcvt.w.d	a4,fa5,rtz
   10356:	d0077753          	fcvt.s.w	fa4,a4
   1035a:	0007081b          	addiw	a6,a4,0
   1035e:	42070753          	fcvt.d.s	fa4,fa4
   10362:	a2e7a6d3          	feq.d	a3,fa5,fa4
   10366:	e299                	c.bnez	a3,1036c <main+0x266>
   10368:	0017081b          	addiw	a6,a4,1
   1036c:	0a98                	c.addi4spn	a4,sp,336
   1036e:	976e                	c.add	a4,s11
   10370:	6318                	c.ld	a4,0(a4)
   10372:	598b0693          	addi	a3,s6,1432
   10376:	8622                	c.mv	a2,s0
   10378:	d23777d3          	fcvt.d.lu	fa5,a4
   1037c:	5a8a0593          	addi	a1,s4,1448
   10380:	5e0c0713          	addi	a4,s8,1504 # 2e5e0 <__clzdi2+0x1c6>
   10384:	1297f7d3          	fmul.d	fa5,fa5,fs1
   10388:	5b898513          	addi	a0,s3,1464
   1038c:	e20788d3          	fmv.x.d	a7,fa5
   10390:	243110ef          	jal	ra,21dd2 <printf>
   10394:	000d2783          	lw	a5,0(s10)
   10398:	d21787d3          	fcvt.d.wu	fa5,a5
   1039c:	1a87f7d3          	fdiv.d	fa5,fa5,fs0
   103a0:	c2079753          	fcvt.w.d	a4,fa5,rtz
   103a4:	d0077753          	fcvt.s.w	fa4,a4
   103a8:	0007081b          	addiw	a6,a4,0
   103ac:	42070753          	fcvt.d.s	fa4,fa4
   103b0:	a2e7a6d3          	feq.d	a3,fa5,fa4
   103b4:	e299                	c.bnez	a3,103ba <main+0x2b4>
   103b6:	0017081b          	addiw	a6,a4,1
   103ba:	1ab8                	c.addi4spn	a4,sp,376
   103bc:	976e                	c.add	a4,s11
   103be:	6318                	c.ld	a4,0(a4)
   103c0:	598b0693          	addi	a3,s6,1432
   103c4:	8622                	c.mv	a2,s0
   103c6:	d23777d3          	fcvt.d.lu	fa5,a4
   103ca:	5a8a0593          	addi	a1,s4,1448
   103ce:	5e8c8713          	addi	a4,s9,1512 # 2e5e8 <__clzdi2+0x1ce>
   103d2:	1297f7d3          	fmul.d	fa5,fa5,fs1
   103d6:	5b898513          	addi	a0,s3,1464
   103da:	e20788d3          	fmv.x.d	a7,fa5
   103de:	1f5110ef          	jal	ra,21dd2 <printf>
   103e2:	67e2                	c.ldsp	a5,24(sp)
   103e4:	439c                	c.lw	a5,0(a5)
   103e6:	d21787d3          	fcvt.d.wu	fa5,a5
   103ea:	1a87f7d3          	fdiv.d	fa5,fa5,fs0
   103ee:	c2079753          	fcvt.w.d	a4,fa5,rtz
   103f2:	d0077753          	fcvt.s.w	fa4,a4
   103f6:	0007081b          	addiw	a6,a4,0
   103fa:	42070753          	fcvt.d.s	fa4,fa4
   103fe:	a2e7a6d3          	feq.d	a3,fa5,fa4
   10402:	e299                	c.bnez	a3,10408 <main+0x302>
   10404:	0017081b          	addiw	a6,a4,1
   10408:	6098                	c.ld	a4,0(s1)
   1040a:	5f0a8693          	addi	a3,s5,1520 # 2e5f0 <__clzdi2+0x1d6>
   1040e:	8622                	c.mv	a2,s0
   10410:	d23777d3          	fcvt.d.lu	fa5,a4
   10414:	5a8a0593          	addi	a1,s4,1448
   10418:	588b8713          	addi	a4,s7,1416
   1041c:	1297f7d3          	fmul.d	fa5,fa5,fs1
   10420:	5b898513          	addi	a0,s3,1464
   10424:	e20788d3          	fmv.x.d	a7,fa5
   10428:	1ab110ef          	jal	ra,21dd2 <printf>
   1042c:	7782                	c.ldsp	a5,32(sp)
   1042e:	439c                	c.lw	a5,0(a5)
   10430:	d21787d3          	fcvt.d.wu	fa5,a5
   10434:	1a87f7d3          	fdiv.d	fa5,fa5,fs0
   10438:	c2079753          	fcvt.w.d	a4,fa5,rtz
   1043c:	d0077753          	fcvt.s.w	fa4,a4
   10440:	0007081b          	addiw	a6,a4,0
   10444:	42070753          	fcvt.d.s	fa4,fa4
   10448:	a2e7a6d3          	feq.d	a3,fa5,fa4
   1044c:	e299                	c.bnez	a3,10452 <main+0x34c>
   1044e:	0017081b          	addiw	a6,a4,1
   10452:	1b98                	c.addi4spn	a4,sp,496
   10454:	976e                	c.add	a4,s11
   10456:	6318                	c.ld	a4,0(a4)
   10458:	5f0a8693          	addi	a3,s5,1520
   1045c:	8622                	c.mv	a2,s0
   1045e:	d23777d3          	fcvt.d.lu	fa5,a4
   10462:	5a8a0593          	addi	a1,s4,1448
   10466:	5e0c0713          	addi	a4,s8,1504
   1046a:	1297f7d3          	fmul.d	fa5,fa5,fs1
   1046e:	5b898513          	addi	a0,s3,1464
   10472:	e20788d3          	fmv.x.d	a7,fa5
   10476:	15d110ef          	jal	ra,21dd2 <printf>
   1047a:	00092783          	lw	a5,0(s2)
   1047e:	d21787d3          	fcvt.d.wu	fa5,a5
   10482:	1a87f7d3          	fdiv.d	fa5,fa5,fs0
   10486:	c2079753          	fcvt.w.d	a4,fa5,rtz
   1048a:	d0077753          	fcvt.s.w	fa4,a4
   1048e:	0007081b          	addiw	a6,a4,0
   10492:	42070753          	fcvt.d.s	fa4,fa4
   10496:	a2e7a6d3          	feq.d	a3,fa5,fa4
   1049a:	e299                	c.bnez	a3,104a0 <main+0x39a>
   1049c:	0017081b          	addiw	a6,a4,1
   104a0:	0498                	c.addi4spn	a4,sp,576
   104a2:	976e                	c.add	a4,s11
   104a4:	6318                	c.ld	a4,0(a4)
   104a6:	8622                	c.mv	a2,s0
   104a8:	6442                	c.ldsp	s0,16(sp)
   104aa:	d23777d3          	fcvt.d.lu	fa5,a4
   104ae:	5f0a8693          	addi	a3,s5,1520
   104b2:	0411                	c.addi	s0,4
   104b4:	1297f7d3          	fmul.d	fa5,fa5,fs1
   104b8:	e822                	c.sdsp	s0,16(sp)
   104ba:	6422                	c.ldsp	s0,8(sp)
   104bc:	5e8c8713          	addi	a4,s9,1512
   104c0:	5a8a0593          	addi	a1,s4,1448
   104c4:	5b898513          	addi	a0,s3,1464
   104c8:	0411                	c.addi	s0,4
   104ca:	e20788d3          	fmv.x.d	a7,fa5
   104ce:	e422                	c.sdsp	s0,8(sp)
   104d0:	0da1                	c.addi	s11,8
   104d2:	101110ef          	jal	ra,21dd2 <printf>
   104d6:	7782                	c.ldsp	a5,32(sp)
   104d8:	0911                	c.addi	s2,4
   104da:	04a1                	c.addi	s1,8
   104dc:	0791                	c.addi	a5,4
   104de:	f03e                	c.sdsp	a5,32(sp)
   104e0:	67e2                	c.ldsp	a5,24(sp)
   104e2:	0d11                	c.addi	s10,4
   104e4:	0791                	c.addi	a5,4
   104e6:	ec3e                	c.sdsp	a5,24(sp)
   104e8:	6782                	c.ldsp	a5,0(sp)
   104ea:	0791                	c.addi	a5,4
   104ec:	e03e                	c.sdsp	a5,0(sp)
   104ee:	02000793          	addi	a5,zero,32
   104f2:	defd9fe3          	bne	s11,a5,102f0 <main+0x1ea>
   104f6:	0002ea37          	lui	s4,0x2e
   104fa:	478a0513          	addi	a0,s4,1144 # 2e478 <__clzdi2+0x5e>
   104fe:	183110ef          	jal	ra,21e80 <puts>
   10502:	0002e537          	lui	a0,0x2e
   10506:	60050513          	addi	a0,a0,1536 # 2e600 <__clzdi2+0x1e6>
   1050a:	177110ef          	jal	ra,21e80 <puts>
   1050e:	478a0513          	addi	a0,s4,1144
   10512:	16f110ef          	jal	ra,21e80 <puts>
   10516:	0002e9b7          	lui	s3,0x2e
   1051a:	0002e937          	lui	s2,0x2e
   1051e:	0002eab7          	lui	s5,0x2e
   10522:	0002e737          	lui	a4,0x2e
   10526:	0002e637          	lui	a2,0x2e
   1052a:	0002e537          	lui	a0,0x2e
   1052e:	63098793          	addi	a5,s3,1584 # 2e630 <__clzdi2+0x216>
   10532:	66090693          	addi	a3,s2,1632 # 2e660 <__clzdi2+0x246>
   10536:	510a8593          	addi	a1,s5,1296 # 2e510 <__clzdi2+0xf6>
   1053a:	64870713          	addi	a4,a4,1608 # 2e648 <__clzdi2+0x22e>
   1053e:	67860613          	addi	a2,a2,1656 # 2e678 <__clzdi2+0x25e>
   10542:	69050513          	addi	a0,a0,1680 # 2e690 <__clzdi2+0x276>
   10546:	08d110ef          	jal	ra,21dd2 <printf>
   1054a:	5606                	c.lwsp	a2,96(sp)
   1054c:	56aa                	c.lwsp	a3,168(sp)
   1054e:	0002e4b7          	lui	s1,0x2e
   10552:	d0167953          	fcvt.s.wu	fs2,a2
   10556:	d016f453          	fcvt.s.wu	fs0,a3
   1055a:	588b8593          	addi	a1,s7,1416
   1055e:	19297753          	fdiv.s	fa4,fs2,fs2
   10562:	6b048513          	addi	a0,s1,1712 # 2e6b0 <__clzdi2+0x296>
   10566:	0002e437          	lui	s0,0x2e
   1056a:	188477d3          	fdiv.s	fa5,fs0,fs0
   1056e:	42070753          	fcvt.d.s	fa4,fa4
   10572:	e2070753          	fmv.x.d	a4,fa4
   10576:	420787d3          	fcvt.d.s	fa5,fa5
   1057a:	e20787d3          	fmv.x.d	a5,fa5
   1057e:	055110ef          	jal	ra,21dd2 <printf>
   10582:	5666                	c.lwsp	a2,120(sp)
   10584:	46ee                	c.lwsp	a3,216(sp)
   10586:	5e0c0593          	addi	a1,s8,1504
   1058a:	d0167753          	fcvt.s.wu	fa4,a2
   1058e:	d016f7d3          	fcvt.s.wu	fa5,a3
   10592:	6b048513          	addi	a0,s1,1712
   10596:	18e97753          	fdiv.s	fa4,fs2,fa4
   1059a:	18f477d3          	fdiv.s	fa5,fs0,fa5
   1059e:	42070753          	fcvt.d.s	fa4,fa4
   105a2:	e2070753          	fmv.x.d	a4,fa4
   105a6:	420787d3          	fcvt.d.s	fa5,fa5
   105aa:	e20787d3          	fmv.x.d	a5,fa5
   105ae:	025110ef          	jal	ra,21dd2 <printf>
   105b2:	464a                	c.lwsp	a2,144(sp)
   105b4:	10812683          	lw	a3,264(sp)
   105b8:	5e8c8593          	addi	a1,s9,1512
   105bc:	d0167753          	fcvt.s.wu	fa4,a2
   105c0:	d016f7d3          	fcvt.s.wu	fa5,a3
   105c4:	6b048513          	addi	a0,s1,1712
   105c8:	18e97953          	fdiv.s	fs2,fs2,fa4
   105cc:	18f47453          	fdiv.s	fs0,fs0,fa5
   105d0:	420907d3          	fcvt.d.s	fa5,fs2
   105d4:	e2078753          	fmv.x.d	a4,fa5
   105d8:	420407d3          	fcvt.d.s	fa5,fs0
   105dc:	e20787d3          	fmv.x.d	a5,fa5
   105e0:	7f2110ef          	jal	ra,21dd2 <printf>
   105e4:	478a0513          	addi	a0,s4,1144
   105e8:	099110ef          	jal	ra,21e80 <puts>
   105ec:	0002e537          	lui	a0,0x2e
   105f0:	6d050513          	addi	a0,a0,1744 # 2e6d0 <__clzdi2+0x2b6>
   105f4:	08d110ef          	jal	ra,21e80 <puts>
   105f8:	478a0513          	addi	a0,s4,1144
   105fc:	085110ef          	jal	ra,21e80 <puts>
   10600:	0002e6b7          	lui	a3,0x2e
   10604:	0002e537          	lui	a0,0x2e
   10608:	63098713          	addi	a4,s3,1584
   1060c:	66090613          	addi	a2,s2,1632
   10610:	510a8593          	addi	a1,s5,1296
   10614:	72068693          	addi	a3,a3,1824 # 2e720 <__clzdi2+0x306>
   10618:	73850513          	addi	a0,a0,1848 # 2e738 <__clzdi2+0x31e>
   1061c:	7b6110ef          	jal	ra,21dd2 <printf>
   10620:	460e                	c.lwsp	a2,192(sp)
   10622:	77be                	c.ldsp	a5,488(sp)
   10624:	588b8593          	addi	a1,s7,1416
   10628:	d0167453          	fcvt.s.wu	fs0,a2
   1062c:	d237f753          	fcvt.d.lu	fa4,a5
   10630:	75040513          	addi	a0,s0,1872 # 2e750 <__clzdi2+0x336>
   10634:	188477d3          	fdiv.s	fa5,fs0,fs0
   10638:	12977753          	fmul.d	fa4,fa4,fs1
   1063c:	e20706d3          	fmv.x.d	a3,fa4
   10640:	420787d3          	fcvt.d.s	fa5,fa5
   10644:	e2078753          	fmv.x.d	a4,fa5
   10648:	78a110ef          	jal	ra,21dd2 <printf>
   1064c:	564e                	c.lwsp	a2,240(sp)
   1064e:	23813783          	ld	a5,568(sp)
   10652:	5e0c0593          	addi	a1,s8,1504
   10656:	d01677d3          	fcvt.s.wu	fa5,a2
   1065a:	d237f753          	fcvt.d.lu	fa4,a5
   1065e:	75040513          	addi	a0,s0,1872
   10662:	18f477d3          	fdiv.s	fa5,fs0,fa5
   10666:	12977753          	fmul.d	fa4,fa4,fs1
   1066a:	e20706d3          	fmv.x.d	a3,fa4
   1066e:	420787d3          	fcvt.d.s	fa5,fa5
   10672:	e2078753          	fmv.x.d	a4,fa5
   10676:	75c110ef          	jal	ra,21dd2 <printf>
   1067a:	12012603          	lw	a2,288(sp)
   1067e:	28813783          	ld	a5,648(sp)
   10682:	5e8c8593          	addi	a1,s9,1512
   10686:	d0167753          	fcvt.s.wu	fa4,a2
   1068a:	d237f7d3          	fcvt.d.lu	fa5,a5
   1068e:	75040513          	addi	a0,s0,1872
   10692:	18e47453          	fdiv.s	fs0,fs0,fa4
   10696:	1297f7d3          	fmul.d	fa5,fa5,fs1
   1069a:	e20786d3          	fmv.x.d	a3,fa5
   1069e:	420407d3          	fcvt.d.s	fa5,fs0
   106a2:	e2078753          	fmv.x.d	a4,fa5
   106a6:	72c110ef          	jal	ra,21dd2 <printf>
   106aa:	478a0513          	addi	a0,s4,1144
   106ae:	7d2110ef          	jal	ra,21e80 <puts>
   106b2:	7401b503          	ld	a0,1856(gp) # 31850 <ct>
   106b6:	707100ef          	jal	ra,215bc <free>
   106ba:	7481b503          	ld	a0,1864(gp) # 31858 <ad>
   106be:	6ff100ef          	jal	ra,215bc <free>
   106c2:	7381b503          	ld	a0,1848(gp) # 31848 <msg>
   106c6:	6f7100ef          	jal	ra,215bc <free>
   106ca:	31813083          	ld	ra,792(sp)
   106ce:	31013403          	ld	s0,784(sp)
   106d2:	30813483          	ld	s1,776(sp)
   106d6:	30013903          	ld	s2,768(sp)
   106da:	2f813983          	ld	s3,760(sp)
   106de:	2f013a03          	ld	s4,752(sp)
   106e2:	2e813a83          	ld	s5,744(sp)
   106e6:	2e013b03          	ld	s6,736(sp)
   106ea:	2d813b83          	ld	s7,728(sp)
   106ee:	2d013c03          	ld	s8,720(sp)
   106f2:	2c813c83          	ld	s9,712(sp)
   106f6:	2c013d03          	ld	s10,704(sp)
   106fa:	2b813d83          	ld	s11,696(sp)
   106fe:	2a813407          	fld	fs0,680(sp)
   10702:	2a013487          	fld	fs1,672(sp)
   10706:	29813907          	fld	fs2,664(sp)
   1070a:	4501                	c.li	a0,0
   1070c:	32010113          	addi	sp,sp,800
   10710:	8082                	c.jr	ra

0000000000010712 <register_fini>:
   10712:	00000793          	addi	a5,zero,0
   10716:	c799                	c.beqz	a5,10724 <register_fini+0x12>
   10718:	00014517          	auipc	a0,0x14
   1071c:	52a50513          	addi	a0,a0,1322 # 24c42 <__libc_fini_array>
   10720:	0801406f          	jal	zero,247a0 <atexit>
   10724:	8082                	c.jr	ra

0000000000010726 <_start>:
   10726:	00021197          	auipc	gp,0x21
   1072a:	9ea18193          	addi	gp,gp,-1558 # 31110 <__global_pointer$>
   1072e:	71818513          	addi	a0,gp,1816 # 31828 <result>
   10732:	00021617          	auipc	a2,0x21
   10736:	1de60613          	addi	a2,a2,478 # 31910 <__BSS_END__>
   1073a:	8e09                	c.sub	a2,a0
   1073c:	4581                	c.li	a1,0
   1073e:	5c4110ef          	jal	ra,21d02 <memset>
   10742:	00014517          	auipc	a0,0x14
   10746:	05e50513          	addi	a0,a0,94 # 247a0 <atexit>
   1074a:	c519                	c.beqz	a0,10758 <_start+0x32>
   1074c:	00014517          	auipc	a0,0x14
   10750:	4f650513          	addi	a0,a0,1270 # 24c42 <__libc_fini_array>
   10754:	04c140ef          	jal	ra,247a0 <atexit>
   10758:	5f3100ef          	jal	ra,2154a <__libc_init_array>
   1075c:	4502                	c.lwsp	a0,0(sp)
   1075e:	002c                	c.addi4spn	a1,sp,8
   10760:	4601                	c.li	a2,0
   10762:	9a5ff0ef          	jal	ra,10106 <main>
   10766:	b249                	c.j	100e8 <exit>

0000000000010768 <__do_global_dtors_aux>:
   10768:	1141                	c.addi	sp,-16
   1076a:	e022                	c.sdsp	s0,0(sp)
   1076c:	78018413          	addi	s0,gp,1920 # 31890 <completed.1>
   10770:	00044783          	lbu	a5,0(s0)
   10774:	e406                	c.sdsp	ra,8(sp)
   10776:	ef99                	c.bnez	a5,10794 <__do_global_dtors_aux+0x2c>
   10778:	00000793          	addi	a5,zero,0
   1077c:	cb89                	c.beqz	a5,1078e <__do_global_dtors_aux+0x26>
   1077e:	00020517          	auipc	a0,0x20
   10782:	ee250513          	addi	a0,a0,-286 # 30660 <__EH_FRAME_BEGIN__>
   10786:	00000097          	auipc	ra,0x0
   1078a:	000000e7          	jalr	ra,0(zero) # 0 <exit-0x100e8>
   1078e:	4785                	c.li	a5,1
   10790:	00f40023          	sb	a5,0(s0)
   10794:	60a2                	c.ldsp	ra,8(sp)
   10796:	6402                	c.ldsp	s0,0(sp)
   10798:	0141                	c.addi	sp,16
   1079a:	8082                	c.jr	ra

000000000001079c <frame_dummy>:
   1079c:	00000793          	addi	a5,zero,0
   107a0:	cb99                	c.beqz	a5,107b6 <frame_dummy+0x1a>
   107a2:	78818593          	addi	a1,gp,1928 # 31898 <object.0>
   107a6:	00020517          	auipc	a0,0x20
   107aa:	eba50513          	addi	a0,a0,-326 # 30660 <__EH_FRAME_BEGIN__>
   107ae:	00000317          	auipc	t1,0x0
   107b2:	00000067          	jalr	zero,0(zero) # 0 <exit-0x100e8>
   107b6:	8082                	c.jr	ra

00000000000107b8 <uint64_cmp>:
   107b8:	6108                	c.ld	a0,0(a0)
   107ba:	619c                	c.ld	a5,0(a1)
   107bc:	9d1d                	c.subw	a0,a5
   107be:	8082                	c.jr	ra

00000000000107c0 <my_ceil>:
   107c0:	c20517d3          	fcvt.w.d	a5,fa0,rtz
   107c4:	d007f7d3          	fcvt.s.w	fa5,a5
   107c8:	0007851b          	addiw	a0,a5,0
   107cc:	420787d3          	fcvt.d.s	fa5,fa5
   107d0:	a2a7a753          	feq.d	a4,fa5,fa0
   107d4:	e319                	c.bnez	a4,107da <my_ceil+0x1a>
   107d6:	0017851b          	addiw	a0,a5,1
   107da:	8082                	c.jr	ra

00000000000107dc <average_time_elapsed>:
   107dc:	02b05463          	bge	zero,a1,10804 <average_time_elapsed+0x28>
   107e0:	00359693          	slli	a3,a1,0x3
   107e4:	96aa                	c.add	a3,a0
   107e6:	4781                	c.li	a5,0
   107e8:	6118                	c.ld	a4,0(a0)
   107ea:	0521                	c.addi	a0,8
   107ec:	97ba                	c.add	a5,a4
   107ee:	fea69de3          	bne	a3,a0,107e8 <average_time_elapsed+0xc>
   107f2:	02b7d7b3          	divu	a5,a5,a1
   107f6:	00179713          	slli	a4,a5,0x1
   107fa:	97ba                	c.add	a5,a4
   107fc:	00479513          	slli	a0,a5,0x4
   10800:	8d1d                	c.sub	a0,a5
   10802:	8082                	c.jr	ra
   10804:	4501                	c.li	a0,0
   10806:	8082                	c.jr	ra

0000000000010808 <median_time_elapsed>:
   10808:	66c1                	c.lui	a3,0x10
   1080a:	1101                	c.addi	sp,-32
   1080c:	7b868693          	addi	a3,a3,1976 # 107b8 <uint64_cmp>
   10810:	4621                	c.li	a2,8
   10812:	e822                	c.sdsp	s0,16(sp)
   10814:	e426                	c.sdsp	s1,8(sp)
   10816:	ec06                	c.sdsp	ra,24(sp)
   10818:	84ae                	c.mv	s1,a1
   1081a:	842a                	c.mv	s0,a0
   1081c:	66c110ef          	jal	ra,21e88 <qsort>
   10820:	01f4d79b          	srliw	a5,s1,0x1f
   10824:	9fa5                	c.addw	a5,s1
   10826:	4017d79b          	sraiw	a5,a5,0x1
   1082a:	078e                	c.slli	a5,0x3
   1082c:	943e                	c.add	s0,a5
   1082e:	6018                	c.ld	a4,0(s0)
   10830:	60e2                	c.ldsp	ra,24(sp)
   10832:	6442                	c.ldsp	s0,16(sp)
   10834:	00171793          	slli	a5,a4,0x1
   10838:	97ba                	c.add	a5,a4
   1083a:	00479513          	slli	a0,a5,0x4
   1083e:	64a2                	c.ldsp	s1,8(sp)
   10840:	8d1d                	c.sub	a0,a5
   10842:	6105                	c.addi16sp	sp,32
   10844:	8082                	c.jr	ra

0000000000010846 <clock_count>:
   10846:	6701b707          	fld	fa4,1648(gp) # 31780 <__SDATA_BEGIN__>
   1084a:	d23577d3          	fcvt.d.lu	fa5,a0
   1084e:	12e7f7d3          	fmul.d	fa5,fa5,fa4
   10852:	6781b707          	fld	fa4,1656(gp) # 31788 <__SDATA_BEGIN__+0x8>
   10856:	1ae7f7d3          	fdiv.d	fa5,fa5,fa4
   1085a:	6801b707          	fld	fa4,1664(gp) # 31790 <__SDATA_BEGIN__+0x10>
   1085e:	12e7f7d3          	fmul.d	fa5,fa5,fa4
   10862:	c20797d3          	fcvt.w.d	a5,fa5,rtz
   10866:	d007f753          	fcvt.s.w	fa4,a5
   1086a:	0007851b          	addiw	a0,a5,0
   1086e:	42070753          	fcvt.d.s	fa4,fa4
   10872:	a2e7a753          	feq.d	a4,fa5,fa4
   10876:	e319                	c.bnez	a4,1087c <clock_count+0x36>
   10878:	0017851b          	addiw	a0,a5,1
   1087c:	8082                	c.jr	ra

000000000001087e <benchmark_restart>:
   1087e:	7139                	c.addi16sp	sp,-64
   10880:	ec4e                	c.sdsp	s3,24(sp)
   10882:	87aa                	c.mv	a5,a0
   10884:	7381b503          	ld	a0,1848(gp) # 31848 <msg>
   10888:	872e                	c.mv	a4,a1
   1088a:	f426                	c.sdsp	s1,40(sp)
   1088c:	85be                	c.mv	a1,a5
   1088e:	f04a                	c.sdsp	s2,32(sp)
   10890:	fc06                	c.sdsp	ra,56(sp)
   10892:	6ee1b823          	sd	a4,1776(gp) # 31800 <adlen>
   10896:	f822                	c.sdsp	s0,48(sp)
   10898:	e852                	c.sdsp	s4,16(sp)
   1089a:	e456                	c.sdsp	s5,8(sp)
   1089c:	6ef1bc23          	sd	a5,1784(gp) # 31808 <mlen>
   108a0:	3d9110ef          	jal	ra,22478 <realloc>
   108a4:	87aa                	c.mv	a5,a0
   108a6:	6f01b583          	ld	a1,1776(gp) # 31800 <adlen>
   108aa:	7481b503          	ld	a0,1864(gp) # 31858 <ad>
   108ae:	72f1bc23          	sd	a5,1848(gp) # 31848 <msg>
   108b2:	3c7110ef          	jal	ra,22478 <realloc>
   108b6:	6f01b703          	ld	a4,1776(gp) # 31800 <adlen>
   108ba:	6f81b583          	ld	a1,1784(gp) # 31808 <mlen>
   108be:	87aa                	c.mv	a5,a0
   108c0:	7401b503          	ld	a0,1856(gp) # 31850 <ct>
   108c4:	95ba                	c.add	a1,a4
   108c6:	74f1b423          	sd	a5,1864(gp) # 31858 <ad>
   108ca:	3af110ef          	jal	ra,22478 <realloc>
   108ce:	87aa                	c.mv	a5,a0
   108d0:	6f81b583          	ld	a1,1784(gp) # 31808 <mlen>
   108d4:	7301b503          	ld	a0,1840(gp) # 31840 <decrypted_msg>
   108d8:	74f1b023          	sd	a5,1856(gp) # 31850 <ct>
   108dc:	39d110ef          	jal	ra,22478 <realloc>
   108e0:	7b818693          	addi	a3,gp,1976 # 318c8 <key>
   108e4:	72a1b823          	sd	a0,1840(gp) # 31840 <decrypted_msg>
   108e8:	7b818713          	addi	a4,gp,1976 # 318c8 <key>
   108ec:	4781                	c.li	a5,0
   108ee:	4641                	c.li	a2,16
   108f0:	00f70023          	sb	a5,0(a4)
   108f4:	0785                	c.addi	a5,1
   108f6:	0705                	c.addi	a4,1
   108f8:	fec79ce3          	bne	a5,a2,108f0 <benchmark_restart+0x72>
   108fc:	01068713          	addi	a4,a3,16
   10900:	4781                	c.li	a5,0
   10902:	46c1                	c.li	a3,16
   10904:	00f70023          	sb	a5,0(a4)
   10908:	0785                	c.addi	a5,1
   1090a:	0705                	c.addi	a4,1
   1090c:	fed79ce3          	bne	a5,a3,10904 <benchmark_restart+0x86>
   10910:	6f81b683          	ld	a3,1784(gp) # 31808 <mlen>
   10914:	7381b603          	ld	a2,1848(gp) # 31848 <msg>
   10918:	ca89                	c.beqz	a3,1092a <benchmark_restart+0xac>
   1091a:	4781                	c.li	a5,0
   1091c:	00f60733          	add	a4,a2,a5
   10920:	00f70023          	sb	a5,0(a4)
   10924:	0785                	c.addi	a5,1
   10926:	fef69be3          	bne	a3,a5,1091c <benchmark_restart+0x9e>
   1092a:	6f01b683          	ld	a3,1776(gp) # 31800 <adlen>
   1092e:	7481b603          	ld	a2,1864(gp) # 31858 <ad>
   10932:	ca89                	c.beqz	a3,10944 <benchmark_restart+0xc6>
   10934:	4781                	c.li	a5,0
   10936:	00f60733          	add	a4,a2,a5
   1093a:	00f70023          	sb	a5,0(a4)
   1093e:	0785                	c.addi	a5,1
   10940:	fef69be3          	bne	a3,a5,10936 <benchmark_restart+0xb8>
   10944:	70e2                	c.ldsp	ra,56(sp)
   10946:	7442                	c.ldsp	s0,48(sp)
   10948:	74a2                	c.ldsp	s1,40(sp)
   1094a:	7902                	c.ldsp	s2,32(sp)
   1094c:	69e2                	c.ldsp	s3,24(sp)
   1094e:	6a42                	c.ldsp	s4,16(sp)
   10950:	6aa2                	c.ldsp	s5,8(sp)
   10952:	6121                	c.addi16sp	sp,64
   10954:	8082                	c.jr	ra

0000000000010956 <benchmark_encryption>:
   10956:	7135                	c.addi16sp	sp,-160
   10958:	e922                	c.sdsp	s0,144(sp)
   1095a:	ed06                	c.sdsp	ra,152(sp)
   1095c:	e526                	c.sdsp	s1,136(sp)
   1095e:	e14a                	c.sdsp	s2,128(sp)
   10960:	fcce                	c.sdsp	s3,120(sp)
   10962:	f8d2                	c.sdsp	s4,112(sp)
   10964:	f4d6                	c.sdsp	s5,104(sp)
   10966:	f0da                	c.sdsp	s6,96(sp)
   10968:	ecde                	c.sdsp	s7,88(sp)
   1096a:	e8e2                	c.sdsp	s8,80(sp)
   1096c:	e4e6                	c.sdsp	s9,72(sp)
   1096e:	e0ea                	c.sdsp	s10,64(sp)
   10970:	fc6e                	c.sdsp	s11,56(sp)
   10972:	1100                	c.addi4spn	s0,sp,160
   10974:	77f1                	c.lui	a5,0xffffc
   10976:	18078793          	addi	a5,a5,384 # ffffffffffffc180 <__BSS_END__+0xfffffffffffca870>
   1097a:	f8243023          	sd	sp,-128(s0)
   1097e:	913e                	c.add	sp,a5
   10980:	0818                	c.addi4spn	a4,sp,16
   10982:	4785                	c.li	a5,1
   10984:	f6b43c23          	sd	a1,-136(s0)
   10988:	f6c43823          	sd	a2,-144(s0)
   1098c:	f8e43423          	sd	a4,-120(s0)
   10990:	02f50a63          	beq	a0,a5,109c4 <benchmark_encryption+0x6e>
   10994:	4789                	c.li	a5,2
   10996:	12f50c63          	beq	a0,a5,10ace <benchmark_encryption+0x178>
   1099a:	0e050463          	beq	a0,zero,10a82 <benchmark_encryption+0x12c>
   1099e:	f8043103          	ld	sp,-128(s0)
   109a2:	f6040113          	addi	sp,s0,-160
   109a6:	60ea                	c.ldsp	ra,152(sp)
   109a8:	644a                	c.ldsp	s0,144(sp)
   109aa:	64aa                	c.ldsp	s1,136(sp)
   109ac:	690a                	c.ldsp	s2,128(sp)
   109ae:	79e6                	c.ldsp	s3,120(sp)
   109b0:	7a46                	c.ldsp	s4,112(sp)
   109b2:	7aa6                	c.ldsp	s5,104(sp)
   109b4:	7b06                	c.ldsp	s6,96(sp)
   109b6:	6be6                	c.ldsp	s7,88(sp)
   109b8:	6c46                	c.ldsp	s8,80(sp)
   109ba:	6ca6                	c.ldsp	s9,72(sp)
   109bc:	6d06                	c.ldsp	s10,64(sp)
   109be:	7de2                	c.ldsp	s11,56(sp)
   109c0:	610d                	c.addi16sp	sp,160
   109c2:	8082                	c.jr	ra
   109c4:	f8843783          	ld	a5,-120(s0)
   109c8:	6c91                	c.lui	s9,0x4
   109ca:	e80c8c93          	addi	s9,s9,-384 # 3e80 <exit-0xc268>
   109ce:	8dbe                	c.mv	s11,a5
   109d0:	9cbe                	c.add	s9,a5
   109d2:	7b818913          	addi	s2,gp,1976 # 318c8 <key>
   109d6:	7c818493          	addi	s1,gp,1992 # 318d8 <nonce>
   109da:	c0102d73          	csrrs	s10,time,zero
   109de:	6f01b783          	ld	a5,1776(gp) # 31800 <adlen>
   109e2:	7481b703          	ld	a4,1864(gp) # 31858 <ad>
   109e6:	6f81b683          	ld	a3,1784(gp) # 31808 <mlen>
   109ea:	7381b603          	ld	a2,1848(gp) # 31848 <msg>
   109ee:	7401b503          	ld	a0,1856(gp) # 31850 <ct>
   109f2:	88a6                	c.mv	a7,s1
   109f4:	e04a                	c.sdsp	s2,0(sp)
   109f6:	4801                	c.li	a6,0
   109f8:	72018593          	addi	a1,gp,1824 # 31830 <clen>
   109fc:	20a040ef          	jal	ra,14c06 <crypto_aead_encrypt_opt64>
   10a00:	c01027f3          	csrrs	a5,time,zero
   10a04:	41a787b3          	sub	a5,a5,s10
   10a08:	00fdb023          	sd	a5,0(s11)
   10a0c:	0da1                	c.addi	s11,8
   10a0e:	fd9d96e3          	bne	s11,s9,109da <benchmark_encryption+0x84>
   10a12:	f8843483          	ld	s1,-120(s0)
   10a16:	66c1                	c.lui	a3,0x10
   10a18:	7b868693          	addi	a3,a3,1976 # 107b8 <uint64_cmp>
   10a1c:	4621                	c.li	a2,8
   10a1e:	7d000593          	addi	a1,zero,2000
   10a22:	8526                	c.mv	a0,s1
   10a24:	464110ef          	jal	ra,21e88 <qsort>
   10a28:	6789                	c.lui	a5,0x2
   10a2a:	97a6                	c.add	a5,s1
   10a2c:	f407b783          	ld	a5,-192(a5) # 1f40 <exit-0xe1a8>
   10a30:	00179713          	slli	a4,a5,0x1
   10a34:	973e                	c.add	a4,a5
   10a36:	00471793          	slli	a5,a4,0x4
   10a3a:	8f99                	c.sub	a5,a4
   10a3c:	6701b707          	fld	fa4,1648(gp) # 31780 <__SDATA_BEGIN__>
   10a40:	d237f7d3          	fcvt.d.lu	fa5,a5
   10a44:	12e7f7d3          	fmul.d	fa5,fa5,fa4
   10a48:	6781b707          	fld	fa4,1656(gp) # 31788 <__SDATA_BEGIN__+0x8>
   10a4c:	1ae7f7d3          	fdiv.d	fa5,fa5,fa4
   10a50:	6801b707          	fld	fa4,1664(gp) # 31790 <__SDATA_BEGIN__+0x10>
   10a54:	12e7f7d3          	fmul.d	fa5,fa5,fa4
   10a58:	c20796d3          	fcvt.w.d	a3,fa5,rtz
   10a5c:	d006f753          	fcvt.s.w	fa4,a3
   10a60:	0006871b          	addiw	a4,a3,0
   10a64:	42070753          	fcvt.d.s	fa4,fa4
   10a68:	a2e7a653          	feq.d	a2,fa5,fa4
   10a6c:	e219                	c.bnez	a2,10a72 <benchmark_encryption+0x11c>
   10a6e:	0016871b          	addiw	a4,a3,1
   10a72:	f7843683          	ld	a3,-136(s0)
   10a76:	2701                	c.addiw	a4,0
   10a78:	e29c                	c.sd	a5,0(a3)
   10a7a:	f7043783          	ld	a5,-144(s0)
   10a7e:	c398                	c.sw	a4,0(a5)
   10a80:	bf39                	c.j	1099e <benchmark_encryption+0x48>
   10a82:	6c91                	c.lui	s9,0x4
   10a84:	e80c8c93          	addi	s9,s9,-384 # 3e80 <exit-0xc268>
   10a88:	8dba                	c.mv	s11,a4
   10a8a:	9cba                	c.add	s9,a4
   10a8c:	7b818913          	addi	s2,gp,1976 # 318c8 <key>
   10a90:	7c818493          	addi	s1,gp,1992 # 318d8 <nonce>
   10a94:	c0102d73          	csrrs	s10,time,zero
   10a98:	6f01b783          	ld	a5,1776(gp) # 31800 <adlen>
   10a9c:	7481b703          	ld	a4,1864(gp) # 31858 <ad>
   10aa0:	6f81b683          	ld	a3,1784(gp) # 31808 <mlen>
   10aa4:	7381b603          	ld	a2,1848(gp) # 31848 <msg>
   10aa8:	7401b503          	ld	a0,1856(gp) # 31850 <ct>
   10aac:	88a6                	c.mv	a7,s1
   10aae:	e04a                	c.sdsp	s2,0(sp)
   10ab0:	4801                	c.li	a6,0
   10ab2:	72018593          	addi	a1,gp,1824 # 31830 <clen>
   10ab6:	5c2010ef          	jal	ra,12078 <crypto_aead_encrypt>
   10aba:	c01027f3          	csrrs	a5,time,zero
   10abe:	41a787b3          	sub	a5,a5,s10
   10ac2:	00fdb023          	sd	a5,0(s11)
   10ac6:	0da1                	c.addi	s11,8
   10ac8:	fdbc96e3          	bne	s9,s11,10a94 <benchmark_encryption+0x13e>
   10acc:	b799                	c.j	10a12 <benchmark_encryption+0xbc>
   10ace:	f8843783          	ld	a5,-120(s0)
   10ad2:	6c91                	c.lui	s9,0x4
   10ad4:	e80c8c93          	addi	s9,s9,-384 # 3e80 <exit-0xc268>
   10ad8:	8dbe                	c.mv	s11,a5
   10ada:	9cbe                	c.add	s9,a5
   10adc:	7c818493          	addi	s1,gp,1992 # 318d8 <nonce>
   10ae0:	c0102d73          	csrrs	s10,time,zero
   10ae4:	6f01b783          	ld	a5,1776(gp) # 31800 <adlen>
   10ae8:	7481b703          	ld	a4,1864(gp) # 31858 <ad>
   10aec:	6f81b683          	ld	a3,1784(gp) # 31808 <mlen>
   10af0:	7381b603          	ld	a2,1848(gp) # 31848 <msg>
   10af4:	7401b503          	ld	a0,1856(gp) # 31850 <ct>
   10af8:	88a6                	c.mv	a7,s1
   10afa:	7b818813          	addi	a6,gp,1976 # 318c8 <key>
   10afe:	72018593          	addi	a1,gp,1824 # 31830 <clen>
   10b02:	4fa0d0ef          	jal	ra,1dffc <ascon128_encrypt>
   10b06:	c01027f3          	csrrs	a5,time,zero
   10b0a:	41a787b3          	sub	a5,a5,s10
   10b0e:	00fdb023          	sd	a5,0(s11)
   10b12:	0da1                	c.addi	s11,8
   10b14:	fdbc96e3          	bne	s9,s11,10ae0 <benchmark_encryption+0x18a>
   10b18:	f8843483          	ld	s1,-120(s0)
   10b1c:	66c1                	c.lui	a3,0x10
   10b1e:	7b868693          	addi	a3,a3,1976 # 107b8 <uint64_cmp>
   10b22:	4621                	c.li	a2,8
   10b24:	7d000593          	addi	a1,zero,2000
   10b28:	8526                	c.mv	a0,s1
   10b2a:	35e110ef          	jal	ra,21e88 <qsort>
   10b2e:	6789                	c.lui	a5,0x2
   10b30:	00f48d33          	add	s10,s1,a5
   10b34:	f40d3783          	ld	a5,-192(s10)
   10b38:	bde5                	c.j	10a30 <benchmark_encryption+0xda>

0000000000010b3a <benchmark_decryption>:
   10b3a:	7135                	c.addi16sp	sp,-160
   10b3c:	e922                	c.sdsp	s0,144(sp)
   10b3e:	ed06                	c.sdsp	ra,152(sp)
   10b40:	e526                	c.sdsp	s1,136(sp)
   10b42:	e14a                	c.sdsp	s2,128(sp)
   10b44:	fcce                	c.sdsp	s3,120(sp)
   10b46:	f8d2                	c.sdsp	s4,112(sp)
   10b48:	f4d6                	c.sdsp	s5,104(sp)
   10b4a:	f0da                	c.sdsp	s6,96(sp)
   10b4c:	ecde                	c.sdsp	s7,88(sp)
   10b4e:	e8e2                	c.sdsp	s8,80(sp)
   10b50:	e4e6                	c.sdsp	s9,72(sp)
   10b52:	e0ea                	c.sdsp	s10,64(sp)
   10b54:	fc6e                	c.sdsp	s11,56(sp)
   10b56:	1100                	c.addi4spn	s0,sp,160
   10b58:	77f1                	c.lui	a5,0xffffc
   10b5a:	18078793          	addi	a5,a5,384 # ffffffffffffc180 <__BSS_END__+0xfffffffffffca870>
   10b5e:	f8243023          	sd	sp,-128(s0)
   10b62:	913e                	c.add	sp,a5
   10b64:	0818                	c.addi4spn	a4,sp,16
   10b66:	4785                	c.li	a5,1
   10b68:	f6b43c23          	sd	a1,-136(s0)
   10b6c:	f6c43823          	sd	a2,-144(s0)
   10b70:	f8e43423          	sd	a4,-120(s0)
   10b74:	02f50a63          	beq	a0,a5,10ba8 <benchmark_decryption+0x6e>
   10b78:	4789                	c.li	a5,2
   10b7a:	12f50c63          	beq	a0,a5,10cb2 <benchmark_decryption+0x178>
   10b7e:	0e050463          	beq	a0,zero,10c66 <benchmark_decryption+0x12c>
   10b82:	f8043103          	ld	sp,-128(s0)
   10b86:	f6040113          	addi	sp,s0,-160
   10b8a:	60ea                	c.ldsp	ra,152(sp)
   10b8c:	644a                	c.ldsp	s0,144(sp)
   10b8e:	64aa                	c.ldsp	s1,136(sp)
   10b90:	690a                	c.ldsp	s2,128(sp)
   10b92:	79e6                	c.ldsp	s3,120(sp)
   10b94:	7a46                	c.ldsp	s4,112(sp)
   10b96:	7aa6                	c.ldsp	s5,104(sp)
   10b98:	7b06                	c.ldsp	s6,96(sp)
   10b9a:	6be6                	c.ldsp	s7,88(sp)
   10b9c:	6c46                	c.ldsp	s8,80(sp)
   10b9e:	6ca6                	c.ldsp	s9,72(sp)
   10ba0:	6d06                	c.ldsp	s10,64(sp)
   10ba2:	7de2                	c.ldsp	s11,56(sp)
   10ba4:	610d                	c.addi16sp	sp,160
   10ba6:	8082                	c.jr	ra
   10ba8:	f8843783          	ld	a5,-120(s0)
   10bac:	6c91                	c.lui	s9,0x4
   10bae:	e80c8c93          	addi	s9,s9,-384 # 3e80 <exit-0xc268>
   10bb2:	8dbe                	c.mv	s11,a5
   10bb4:	9cbe                	c.add	s9,a5
   10bb6:	7b818913          	addi	s2,gp,1976 # 318c8 <key>
   10bba:	7c818493          	addi	s1,gp,1992 # 318d8 <nonce>
   10bbe:	c0102d73          	csrrs	s10,time,zero
   10bc2:	6f01b803          	ld	a6,1776(gp) # 31800 <adlen>
   10bc6:	7481b783          	ld	a5,1864(gp) # 31858 <ad>
   10bca:	7201b703          	ld	a4,1824(gp) # 31830 <clen>
   10bce:	7401b683          	ld	a3,1856(gp) # 31850 <ct>
   10bd2:	7301b503          	ld	a0,1840(gp) # 31840 <decrypted_msg>
   10bd6:	88a6                	c.mv	a7,s1
   10bd8:	e04a                	c.sdsp	s2,0(sp)
   10bda:	4601                	c.li	a2,0
   10bdc:	72818593          	addi	a1,gp,1832 # 31838 <decrypted_mlen>
   10be0:	359060ef          	jal	ra,17738 <crypto_aead_decrypt_opt64>
   10be4:	c01027f3          	csrrs	a5,time,zero
   10be8:	41a787b3          	sub	a5,a5,s10
   10bec:	00fdb023          	sd	a5,0(s11)
   10bf0:	0da1                	c.addi	s11,8
   10bf2:	fd9d96e3          	bne	s11,s9,10bbe <benchmark_decryption+0x84>
   10bf6:	f8843483          	ld	s1,-120(s0)
   10bfa:	66c1                	c.lui	a3,0x10
   10bfc:	7b868693          	addi	a3,a3,1976 # 107b8 <uint64_cmp>
   10c00:	4621                	c.li	a2,8
   10c02:	7d000593          	addi	a1,zero,2000
   10c06:	8526                	c.mv	a0,s1
   10c08:	280110ef          	jal	ra,21e88 <qsort>
   10c0c:	6789                	c.lui	a5,0x2
   10c0e:	97a6                	c.add	a5,s1
   10c10:	f407b783          	ld	a5,-192(a5) # 1f40 <exit-0xe1a8>
   10c14:	00179713          	slli	a4,a5,0x1
   10c18:	973e                	c.add	a4,a5
   10c1a:	00471793          	slli	a5,a4,0x4
   10c1e:	8f99                	c.sub	a5,a4
   10c20:	6701b707          	fld	fa4,1648(gp) # 31780 <__SDATA_BEGIN__>
   10c24:	d237f7d3          	fcvt.d.lu	fa5,a5
   10c28:	12e7f7d3          	fmul.d	fa5,fa5,fa4
   10c2c:	6781b707          	fld	fa4,1656(gp) # 31788 <__SDATA_BEGIN__+0x8>
   10c30:	1ae7f7d3          	fdiv.d	fa5,fa5,fa4
   10c34:	6801b707          	fld	fa4,1664(gp) # 31790 <__SDATA_BEGIN__+0x10>
   10c38:	12e7f7d3          	fmul.d	fa5,fa5,fa4
   10c3c:	c20796d3          	fcvt.w.d	a3,fa5,rtz
   10c40:	d006f753          	fcvt.s.w	fa4,a3
   10c44:	0006871b          	addiw	a4,a3,0
   10c48:	42070753          	fcvt.d.s	fa4,fa4
   10c4c:	a2e7a653          	feq.d	a2,fa5,fa4
   10c50:	e219                	c.bnez	a2,10c56 <benchmark_decryption+0x11c>
   10c52:	0016871b          	addiw	a4,a3,1
   10c56:	f7843683          	ld	a3,-136(s0)
   10c5a:	2701                	c.addiw	a4,0
   10c5c:	e29c                	c.sd	a5,0(a3)
   10c5e:	f7043783          	ld	a5,-144(s0)
   10c62:	c398                	c.sw	a4,0(a5)
   10c64:	bf39                	c.j	10b82 <benchmark_decryption+0x48>
   10c66:	6c91                	c.lui	s9,0x4
   10c68:	e80c8c93          	addi	s9,s9,-384 # 3e80 <exit-0xc268>
   10c6c:	8dba                	c.mv	s11,a4
   10c6e:	9cba                	c.add	s9,a4
   10c70:	7b818913          	addi	s2,gp,1976 # 318c8 <key>
   10c74:	7c818493          	addi	s1,gp,1992 # 318d8 <nonce>
   10c78:	c0102d73          	csrrs	s10,time,zero
   10c7c:	6f01b803          	ld	a6,1776(gp) # 31800 <adlen>
   10c80:	7481b783          	ld	a5,1864(gp) # 31858 <ad>
   10c84:	7201b703          	ld	a4,1824(gp) # 31830 <clen>
   10c88:	7401b683          	ld	a3,1856(gp) # 31850 <ct>
   10c8c:	7301b503          	ld	a0,1840(gp) # 31840 <decrypted_msg>
   10c90:	88a6                	c.mv	a7,s1
   10c92:	e04a                	c.sdsp	s2,0(sp)
   10c94:	4601                	c.li	a2,0
   10c96:	72818593          	addi	a1,gp,1832 # 31838 <decrypted_mlen>
   10c9a:	218020ef          	jal	ra,12eb2 <crypto_aead_decrypt>
   10c9e:	c01027f3          	csrrs	a5,time,zero
   10ca2:	41a787b3          	sub	a5,a5,s10
   10ca6:	00fdb023          	sd	a5,0(s11)
   10caa:	0da1                	c.addi	s11,8
   10cac:	fdbc96e3          	bne	s9,s11,10c78 <benchmark_decryption+0x13e>
   10cb0:	b799                	c.j	10bf6 <benchmark_decryption+0xbc>
   10cb2:	f8843783          	ld	a5,-120(s0)
   10cb6:	6c91                	c.lui	s9,0x4
   10cb8:	e80c8c93          	addi	s9,s9,-384 # 3e80 <exit-0xc268>
   10cbc:	8dbe                	c.mv	s11,a5
   10cbe:	9cbe                	c.add	s9,a5
   10cc0:	7c818493          	addi	s1,gp,1992 # 318d8 <nonce>
   10cc4:	c0102d73          	csrrs	s10,time,zero
   10cc8:	6f01b783          	ld	a5,1776(gp) # 31800 <adlen>
   10ccc:	7481b703          	ld	a4,1864(gp) # 31858 <ad>
   10cd0:	7201b683          	ld	a3,1824(gp) # 31830 <clen>
   10cd4:	7401b603          	ld	a2,1856(gp) # 31850 <ct>
   10cd8:	7301b503          	ld	a0,1840(gp) # 31840 <decrypted_msg>
   10cdc:	88a6                	c.mv	a7,s1
   10cde:	7b818813          	addi	a6,gp,1976 # 318c8 <key>
   10ce2:	72818593          	addi	a1,gp,1832 # 31838 <decrypted_mlen>
   10ce6:	4920e0ef          	jal	ra,1f178 <ascon128_decrypt>
   10cea:	c01027f3          	csrrs	a5,time,zero
   10cee:	41a787b3          	sub	a5,a5,s10
   10cf2:	00fdb023          	sd	a5,0(s11)
   10cf6:	0da1                	c.addi	s11,8
   10cf8:	fdbc96e3          	bne	s9,s11,10cc4 <benchmark_decryption+0x18a>
   10cfc:	f8843483          	ld	s1,-120(s0)
   10d00:	66c1                	c.lui	a3,0x10
   10d02:	7b868693          	addi	a3,a3,1976 # 107b8 <uint64_cmp>
   10d06:	4621                	c.li	a2,8
   10d08:	7d000593          	addi	a1,zero,2000
   10d0c:	8526                	c.mv	a0,s1
   10d0e:	17a110ef          	jal	ra,21e88 <qsort>
   10d12:	6789                	c.lui	a5,0x2
   10d14:	00f48d33          	add	s10,s1,a5
   10d18:	f40d3783          	ld	a5,-192(s10)
   10d1c:	bde5                	c.j	10c14 <benchmark_decryption+0xda>

0000000000010d1e <benchmark_decryption_final_ciphertext_stage>:
   10d1e:	7171                	c.addi16sp	sp,-176
   10d20:	f122                	c.sdsp	s0,160(sp)
   10d22:	f506                	c.sdsp	ra,168(sp)
   10d24:	ed26                	c.sdsp	s1,152(sp)
   10d26:	e94a                	c.sdsp	s2,144(sp)
   10d28:	e54e                	c.sdsp	s3,136(sp)
   10d2a:	e152                	c.sdsp	s4,128(sp)
   10d2c:	fcd6                	c.sdsp	s5,120(sp)
   10d2e:	f8da                	c.sdsp	s6,112(sp)
   10d30:	f4de                	c.sdsp	s7,104(sp)
   10d32:	f0e2                	c.sdsp	s8,96(sp)
   10d34:	ece6                	c.sdsp	s9,88(sp)
   10d36:	e8ea                	c.sdsp	s10,80(sp)
   10d38:	e4ee                	c.sdsp	s11,72(sp)
   10d3a:	1900                	c.addi4spn	s0,sp,176
   10d3c:	77f1                	c.lui	a5,0xffffc
   10d3e:	18078793          	addi	a5,a5,384 # ffffffffffffc180 <__BSS_END__+0xfffffffffffca870>
   10d42:	f6243823          	sd	sp,-144(s0)
   10d46:	913e                	c.add	sp,a5
   10d48:	0818                	c.addi4spn	a4,sp,16
   10d4a:	4785                	c.li	a5,1
   10d4c:	f6b43423          	sd	a1,-152(s0)
   10d50:	f6c43023          	sd	a2,-160(s0)
   10d54:	f6e43c23          	sd	a4,-136(s0)
   10d58:	02f50a63          	beq	a0,a5,10d8c <benchmark_decryption_final_ciphertext_stage+0x6e>
   10d5c:	4789                	c.li	a5,2
   10d5e:	12f50e63          	beq	a0,a5,10e9a <benchmark_decryption_final_ciphertext_stage+0x17c>
   10d62:	0e050563          	beq	a0,zero,10e4c <benchmark_decryption_final_ciphertext_stage+0x12e>
   10d66:	f7043103          	ld	sp,-144(s0)
   10d6a:	f5040113          	addi	sp,s0,-176
   10d6e:	70aa                	c.ldsp	ra,168(sp)
   10d70:	740a                	c.ldsp	s0,160(sp)
   10d72:	64ea                	c.ldsp	s1,152(sp)
   10d74:	694a                	c.ldsp	s2,144(sp)
   10d76:	69aa                	c.ldsp	s3,136(sp)
   10d78:	6a0a                	c.ldsp	s4,128(sp)
   10d7a:	7ae6                	c.ldsp	s5,120(sp)
   10d7c:	7b46                	c.ldsp	s6,112(sp)
   10d7e:	7ba6                	c.ldsp	s7,104(sp)
   10d80:	7c06                	c.ldsp	s8,96(sp)
   10d82:	6ce6                	c.ldsp	s9,88(sp)
   10d84:	6d46                	c.ldsp	s10,80(sp)
   10d86:	6da6                	c.ldsp	s11,72(sp)
   10d88:	614d                	c.addi16sp	sp,176
   10d8a:	8082                	c.jr	ra
   10d8c:	f7843783          	ld	a5,-136(s0)
   10d90:	6d11                	c.lui	s10,0x4
   10d92:	e80d0d13          	addi	s10,s10,-384 # 3e80 <exit-0xc268>
   10d96:	8dbe                	c.mv	s11,a5
   10d98:	9d3e                	c.add	s10,a5
   10d9a:	7b818913          	addi	s2,gp,1976 # 318c8 <key>
   10d9e:	7c818493          	addi	s1,gp,1992 # 318d8 <nonce>
   10da2:	f8840a13          	addi	s4,s0,-120
   10da6:	7481b783          	ld	a5,1864(gp) # 31858 <ad>
   10daa:	6f01b803          	ld	a6,1776(gp) # 31800 <adlen>
   10dae:	7201b703          	ld	a4,1824(gp) # 31830 <clen>
   10db2:	7401b683          	ld	a3,1856(gp) # 31850 <ct>
   10db6:	7301b503          	ld	a0,1840(gp) # 31840 <decrypted_msg>
   10dba:	f8043423          	sd	zero,-120(s0)
   10dbe:	e452                	c.sdsp	s4,8(sp)
   10dc0:	e04a                	c.sdsp	s2,0(sp)
   10dc2:	88a6                	c.mv	a7,s1
   10dc4:	4601                	c.li	a2,0
   10dc6:	72818593          	addi	a1,gp,1832 # 31838 <decrypted_mlen>
   10dca:	506090ef          	jal	ra,1a2d0 <crypto_aead_decrypt_opt64_debug>
   10dce:	f8843783          	ld	a5,-120(s0)
   10dd2:	0da1                	c.addi	s11,8
   10dd4:	fefdbc23          	sd	a5,-8(s11)
   10dd8:	fdad97e3          	bne	s11,s10,10da6 <benchmark_decryption_final_ciphertext_stage+0x88>
   10ddc:	f7843483          	ld	s1,-136(s0)
   10de0:	66c1                	c.lui	a3,0x10
   10de2:	7b868693          	addi	a3,a3,1976 # 107b8 <uint64_cmp>
   10de6:	4621                	c.li	a2,8
   10de8:	7d000593          	addi	a1,zero,2000
   10dec:	8526                	c.mv	a0,s1
   10dee:	09a110ef          	jal	ra,21e88 <qsort>
   10df2:	6789                	c.lui	a5,0x2
   10df4:	97a6                	c.add	a5,s1
   10df6:	f407b783          	ld	a5,-192(a5) # 1f40 <exit-0xe1a8>
   10dfa:	00179713          	slli	a4,a5,0x1
   10dfe:	973e                	c.add	a4,a5
   10e00:	00471793          	slli	a5,a4,0x4
   10e04:	8f99                	c.sub	a5,a4
   10e06:	6701b707          	fld	fa4,1648(gp) # 31780 <__SDATA_BEGIN__>
   10e0a:	d237f7d3          	fcvt.d.lu	fa5,a5
   10e0e:	12e7f7d3          	fmul.d	fa5,fa5,fa4
   10e12:	6781b707          	fld	fa4,1656(gp) # 31788 <__SDATA_BEGIN__+0x8>
   10e16:	1ae7f7d3          	fdiv.d	fa5,fa5,fa4
   10e1a:	6801b707          	fld	fa4,1664(gp) # 31790 <__SDATA_BEGIN__+0x10>
   10e1e:	12e7f7d3          	fmul.d	fa5,fa5,fa4
   10e22:	c20796d3          	fcvt.w.d	a3,fa5,rtz
   10e26:	d006f753          	fcvt.s.w	fa4,a3
   10e2a:	0006871b          	addiw	a4,a3,0
   10e2e:	42070753          	fcvt.d.s	fa4,fa4
   10e32:	a2e7a653          	feq.d	a2,fa5,fa4
   10e36:	e219                	c.bnez	a2,10e3c <benchmark_decryption_final_ciphertext_stage+0x11e>
   10e38:	0016871b          	addiw	a4,a3,1
   10e3c:	f6843683          	ld	a3,-152(s0)
   10e40:	2701                	c.addiw	a4,0
   10e42:	e29c                	c.sd	a5,0(a3)
   10e44:	f6043783          	ld	a5,-160(s0)
   10e48:	c398                	c.sw	a4,0(a5)
   10e4a:	bf31                	c.j	10d66 <benchmark_decryption_final_ciphertext_stage+0x48>
   10e4c:	6d11                	c.lui	s10,0x4
   10e4e:	e80d0d13          	addi	s10,s10,-384 # 3e80 <exit-0xc268>
   10e52:	8dba                	c.mv	s11,a4
   10e54:	9d3a                	c.add	s10,a4
   10e56:	7b818913          	addi	s2,gp,1976 # 318c8 <key>
   10e5a:	7c818493          	addi	s1,gp,1992 # 318d8 <nonce>
   10e5e:	f8840a13          	addi	s4,s0,-120
   10e62:	7481b783          	ld	a5,1864(gp) # 31858 <ad>
   10e66:	6f01b803          	ld	a6,1776(gp) # 31800 <adlen>
   10e6a:	7201b703          	ld	a4,1824(gp) # 31830 <clen>
   10e6e:	7401b683          	ld	a3,1856(gp) # 31850 <ct>
   10e72:	7301b503          	ld	a0,1840(gp) # 31840 <decrypted_msg>
   10e76:	f8043423          	sd	zero,-120(s0)
   10e7a:	e452                	c.sdsp	s4,8(sp)
   10e7c:	e04a                	c.sdsp	s2,0(sp)
   10e7e:	88a6                	c.mv	a7,s1
   10e80:	4601                	c.li	a2,0
   10e82:	72818593          	addi	a1,gp,1832 # 31838 <decrypted_mlen>
   10e86:	6cf020ef          	jal	ra,13d54 <crypto_aead_decrypt_debug>
   10e8a:	f8843783          	ld	a5,-120(s0)
   10e8e:	0da1                	c.addi	s11,8
   10e90:	fefdbc23          	sd	a5,-8(s11)
   10e94:	fdbd17e3          	bne	s10,s11,10e62 <benchmark_decryption_final_ciphertext_stage+0x144>
   10e98:	b791                	c.j	10ddc <benchmark_decryption_final_ciphertext_stage+0xbe>
   10e9a:	f7843783          	ld	a5,-136(s0)
   10e9e:	6d11                	c.lui	s10,0x4
   10ea0:	e80d0d13          	addi	s10,s10,-384 # 3e80 <exit-0xc268>
   10ea4:	8dbe                	c.mv	s11,a5
   10ea6:	9d3e                	c.add	s10,a5
   10ea8:	7c818493          	addi	s1,gp,1992 # 318d8 <nonce>
   10eac:	f8840a13          	addi	s4,s0,-120
   10eb0:	6f01b783          	ld	a5,1776(gp) # 31800 <adlen>
   10eb4:	7481b703          	ld	a4,1864(gp) # 31858 <ad>
   10eb8:	7201b683          	ld	a3,1824(gp) # 31830 <clen>
   10ebc:	7401b603          	ld	a2,1856(gp) # 31850 <ct>
   10ec0:	7301b503          	ld	a0,1840(gp) # 31840 <decrypted_msg>
   10ec4:	f8043423          	sd	zero,-120(s0)
   10ec8:	e052                	c.sdsp	s4,0(sp)
   10eca:	88a6                	c.mv	a7,s1
   10ecc:	7b818813          	addi	a6,gp,1976 # 318c8 <key>
   10ed0:	72818593          	addi	a1,gp,1832 # 31838 <decrypted_mlen>
   10ed4:	4840f0ef          	jal	ra,20358 <ascon128_decrypt_debug>
   10ed8:	f8843783          	ld	a5,-120(s0)
   10edc:	0da1                	c.addi	s11,8
   10ede:	fefdbc23          	sd	a5,-8(s11)
   10ee2:	fdbd17e3          	bne	s10,s11,10eb0 <benchmark_decryption_final_ciphertext_stage+0x192>
   10ee6:	f7843483          	ld	s1,-136(s0)
   10eea:	66c1                	c.lui	a3,0x10
   10eec:	7b868693          	addi	a3,a3,1976 # 107b8 <uint64_cmp>
   10ef0:	4621                	c.li	a2,8
   10ef2:	7d000593          	addi	a1,zero,2000
   10ef6:	8526                	c.mv	a0,s1
   10ef8:	791100ef          	jal	ra,21e88 <qsort>
   10efc:	6789                	c.lui	a5,0x2
   10efe:	00f48db3          	add	s11,s1,a5
   10f02:	f40db783          	ld	a5,-192(s11)
   10f06:	bdd5                	c.j	10dfa <benchmark_decryption_final_ciphertext_stage+0xdc>

0000000000010f08 <P6>:
   10f08:	6d10                	c.ld	a2,24(a0)
   10f0a:	00853e03          	ld	t3,8(a0)
   10f0e:	7114                	c.ld	a3,32(a0)
   10f10:	6118                	c.ld	a4,0(a0)
   10f12:	691c                	c.ld	a5,16(a0)
   10f14:	00c6ceb3          	xor	t4,a3,a2
   10f18:	fff64593          	xori	a1,a2,-1
   10f1c:	8eb9                	c.xor	a3,a4
   10f1e:	00fe47b3          	xor	a5,t3,a5
   10f22:	0967cf13          	xori	t5,a5,150
   10f26:	fffe4893          	xori	a7,t3,-1
   10f2a:	01d5f5b3          	and	a1,a1,t4
   10f2e:	fff6c313          	xori	t1,a3,-1
   10f32:	f697c713          	xori	a4,a5,-151
   10f36:	fffec813          	xori	a6,t4,-1
   10f3a:	01e5c5b3          	xor	a1,a1,t5
   10f3e:	01e8f8b3          	and	a7,a7,t5
   10f42:	01c37333          	and	t1,t1,t3
   10f46:	8f71                	c.and	a4,a2
   10f48:	00d87833          	and	a6,a6,a3
   10f4c:	01d34333          	xor	t1,t1,t4
   10f50:	00d8c8b3          	xor	a7,a7,a3
   10f54:	01c74733          	xor	a4,a4,t3
   10f58:	00b84833          	xor	a6,a6,a1
   10f5c:	711d                	c.addi16sp	sp,-96
   10f5e:	01174733          	xor	a4,a4,a7
   10f62:	00c84833          	xor	a6,a6,a2
   10f66:	0068c8b3          	xor	a7,a7,t1
   10f6a:	fff5c593          	xori	a1,a1,-1
   10f6e:	eca2                	c.sdsp	s0,88(sp)
   10f70:	e8a6                	c.sdsp	s1,80(sp)
   10f72:	e4ca                	c.sdsp	s2,72(sp)
   10f74:	e0ce                	c.sdsp	s3,64(sp)
   10f76:	fc52                	c.sdsp	s4,56(sp)
   10f78:	f856                	c.sdsp	s5,48(sp)
   10f7a:	f45a                	c.sdsp	s6,40(sp)
   10f7c:	f05e                	c.sdsp	s7,32(sp)
   10f7e:	ec62                	c.sdsp	s8,24(sp)
   10f80:	e866                	c.sdsp	s9,16(sp)
   10f82:	e46a                	c.sdsp	s10,8(sp)
   10f84:	02775c93          	srli	s9,a4,0x27
   10f88:	03d75d13          	srli	s10,a4,0x3d
   10f8c:	03681c13          	slli	s8,a6,0x36
   10f90:	02f81b93          	slli	s7,a6,0x2f
   10f94:	03931b13          	slli	s6,t1,0x39
   10f98:	02935a93          	srli	s5,t1,0x29
   10f9c:	03f59a13          	slli	s4,a1,0x3f
   10fa0:	03a59993          	slli	s3,a1,0x3a
   10fa4:	02d89913          	slli	s2,a7,0x2d
   10fa8:	02489493          	slli	s1,a7,0x24
   10fac:	00371e13          	slli	t3,a4,0x3
   10fb0:	01971413          	slli	s0,a4,0x19
   10fb4:	00a85e93          	srli	t4,a6,0xa
   10fb8:	01185393          	srli	t2,a6,0x11
   10fbc:	00735613          	srli	a2,t1,0x7
   10fc0:	01731293          	slli	t0,t1,0x17
   10fc4:	0015d793          	srli	a5,a1,0x1
   10fc8:	0065df93          	srli	t6,a1,0x6
   10fcc:	0138d693          	srli	a3,a7,0x13
   10fd0:	01c8df13          	srli	t5,a7,0x1c
   10fd4:	01946433          	or	s0,s0,s9
   10fd8:	0173e3b3          	or	t2,t2,s7
   10fdc:	0152e2b3          	or	t0,t0,s5
   10fe0:	013fefb3          	or	t6,t6,s3
   10fe4:	009f6f33          	or	t5,t5,s1
   10fe8:	01ae6e33          	or	t3,t3,s10
   10fec:	018eeeb3          	or	t4,t4,s8
   10ff0:	01666633          	or	a2,a2,s6
   10ff4:	0147e7b3          	or	a5,a5,s4
   10ff8:	0126e6b3          	or	a3,a3,s2
   10ffc:	007eceb3          	xor	t4,t4,t2
   11000:	01e6c6b3          	xor	a3,a3,t5
   11004:	008e4e33          	xor	t3,t3,s0
   11008:	00564633          	xor	a2,a2,t0
   1100c:	01f7c7b3          	xor	a5,a5,t6
   11010:	00ee4e33          	xor	t3,t3,a4
   11014:	010ec833          	xor	a6,t4,a6
   11018:	00664633          	xor	a2,a2,t1
   1101c:	0116c733          	xor	a4,a3,a7
   11020:	8fad                	c.xor	a5,a1
   11022:	8f31                	c.xor	a4,a2
   11024:	01c7c7b3          	xor	a5,a5,t3
   11028:	00c84633          	xor	a2,a6,a2
   1102c:	0877ce93          	xori	t4,a5,135
   11030:	fffe4313          	xori	t1,t3,-1
   11034:	fff84593          	xori	a1,a6,-1
   11038:	fff74693          	xori	a3,a4,-1
   1103c:	fff64893          	xori	a7,a2,-1
   11040:	f787c793          	xori	a5,a5,-136
   11044:	01d37333          	and	t1,t1,t4
   11048:	8df1                	c.and	a1,a2
   1104a:	01c6f6b3          	and	a3,a3,t3
   1104e:	0107f7b3          	and	a5,a5,a6
   11052:	00e8f8b3          	and	a7,a7,a4
   11056:	8eb1                	c.xor	a3,a2
   11058:	00e34333          	xor	t1,t1,a4
   1105c:	01d5c5b3          	xor	a1,a1,t4
   11060:	01c7c7b3          	xor	a5,a5,t3
   11064:	0108c8b3          	xor	a7,a7,a6
   11068:	0067c7b3          	xor	a5,a5,t1
   1106c:	00b8c8b3          	xor	a7,a7,a1
   11070:	03969f93          	slli	t6,a3,0x39
   11074:	fff5c593          	xori	a1,a1,-1
   11078:	0296d713          	srli	a4,a3,0x29
   1107c:	0076df13          	srli	t5,a3,0x7
   11080:	01769613          	slli	a2,a3,0x17
   11084:	00d34833          	xor	a6,t1,a3
   11088:	03d7da93          	srli	s5,a5,0x3d
   1108c:	0277da13          	srli	s4,a5,0x27
   11090:	03689993          	slli	s3,a7,0x36
   11094:	02f89913          	slli	s2,a7,0x2f
   11098:	8e59                	c.or	a2,a4
   1109a:	03f59493          	slli	s1,a1,0x3f
   1109e:	03a59413          	slli	s0,a1,0x3a
   110a2:	00379e93          	slli	t4,a5,0x3
   110a6:	01979393          	slli	t2,a5,0x19
   110aa:	00a8de13          	srli	t3,a7,0xa
   110ae:	0118d293          	srli	t0,a7,0x11
   110b2:	01ff6f33          	or	t5,t5,t6
   110b6:	0015d713          	srli	a4,a1,0x1
   110ba:	0065df93          	srli	t6,a1,0x6
   110be:	00cf4f33          	xor	t5,t5,a2
   110c2:	0143e3b3          	or	t2,t2,s4
   110c6:	0122e2b3          	or	t0,t0,s2
   110ca:	008fefb3          	or	t6,t6,s0
   110ce:	015eeeb3          	or	t4,t4,s5
   110d2:	02d81413          	slli	s0,a6,0x2d
   110d6:	013e6e33          	or	t3,t3,s3
   110da:	8f45                	c.or	a4,s1
   110dc:	01385613          	srli	a2,a6,0x13
   110e0:	01f74733          	xor	a4,a4,t6
   110e4:	01e34333          	xor	t1,t1,t5
   110e8:	01c85f93          	srli	t6,a6,0x1c
   110ec:	007eceb3          	xor	t4,t4,t2
   110f0:	005e4e33          	xor	t3,t3,t0
   110f4:	8e41                	c.or	a2,s0
   110f6:	1812                	c.slli	a6,0x24
   110f8:	00feceb3          	xor	t4,t4,a5
   110fc:	011e4e33          	xor	t3,t3,a7
   11100:	00b747b3          	xor	a5,a4,a1
   11104:	01e6c6b3          	xor	a3,a3,t5
   11108:	010fe733          	or	a4,t6,a6
   1110c:	00664633          	xor	a2,a2,t1
   11110:	8e39                	c.xor	a2,a4
   11112:	01d7c7b3          	xor	a5,a5,t4
   11116:	01c6c733          	xor	a4,a3,t3
   1111a:	0787c813          	xori	a6,a5,120
   1111e:	fffec313          	xori	t1,t4,-1
   11122:	fffe4593          	xori	a1,t3,-1
   11126:	fff64693          	xori	a3,a2,-1
   1112a:	fff74893          	xori	a7,a4,-1
   1112e:	f877c793          	xori	a5,a5,-121
   11132:	01037333          	and	t1,t1,a6
   11136:	8df9                	c.and	a1,a4
   11138:	01d6f6b3          	and	a3,a3,t4
   1113c:	01c7f7b3          	and	a5,a5,t3
   11140:	00c8f8b3          	and	a7,a7,a2
   11144:	8eb9                	c.xor	a3,a4
   11146:	00c34333          	xor	t1,t1,a2
   1114a:	0105c5b3          	xor	a1,a1,a6
   1114e:	01d7c7b3          	xor	a5,a5,t4
   11152:	01c8c8b3          	xor	a7,a7,t3
   11156:	0067c7b3          	xor	a5,a5,t1
   1115a:	00b8c8b3          	xor	a7,a7,a1
   1115e:	03969f93          	slli	t6,a3,0x39
   11162:	fff5c593          	xori	a1,a1,-1
   11166:	0296d713          	srli	a4,a3,0x29
   1116a:	0076df13          	srli	t5,a3,0x7
   1116e:	01769613          	slli	a2,a3,0x17
   11172:	00d34833          	xor	a6,t1,a3
   11176:	03d7da93          	srli	s5,a5,0x3d
   1117a:	0277da13          	srli	s4,a5,0x27
   1117e:	03689993          	slli	s3,a7,0x36
   11182:	02f89913          	slli	s2,a7,0x2f
   11186:	8e59                	c.or	a2,a4
   11188:	03f59493          	slli	s1,a1,0x3f
   1118c:	03a59413          	slli	s0,a1,0x3a
   11190:	00379e93          	slli	t4,a5,0x3
   11194:	01979393          	slli	t2,a5,0x19
   11198:	00a8de13          	srli	t3,a7,0xa
   1119c:	0118d293          	srli	t0,a7,0x11
   111a0:	01ff6f33          	or	t5,t5,t6
   111a4:	0015d713          	srli	a4,a1,0x1
   111a8:	0065df93          	srli	t6,a1,0x6
   111ac:	00cf4f33          	xor	t5,t5,a2
   111b0:	0143e3b3          	or	t2,t2,s4
   111b4:	0122e2b3          	or	t0,t0,s2
   111b8:	008fefb3          	or	t6,t6,s0
   111bc:	015eeeb3          	or	t4,t4,s5
   111c0:	02d81413          	slli	s0,a6,0x2d
   111c4:	013e6e33          	or	t3,t3,s3
   111c8:	8f45                	c.or	a4,s1
   111ca:	01385613          	srli	a2,a6,0x13
   111ce:	01f74733          	xor	a4,a4,t6
   111d2:	01e34333          	xor	t1,t1,t5
   111d6:	01c85f93          	srli	t6,a6,0x1c
   111da:	007eceb3          	xor	t4,t4,t2
   111de:	005e4e33          	xor	t3,t3,t0
   111e2:	8e41                	c.or	a2,s0
   111e4:	1812                	c.slli	a6,0x24
   111e6:	00feceb3          	xor	t4,t4,a5
   111ea:	011e4e33          	xor	t3,t3,a7
   111ee:	00b747b3          	xor	a5,a4,a1
   111f2:	01e6c6b3          	xor	a3,a3,t5
   111f6:	010fe733          	or	a4,t6,a6
   111fa:	00664633          	xor	a2,a2,t1
   111fe:	8e39                	c.xor	a2,a4
   11200:	01d7c7b3          	xor	a5,a5,t4
   11204:	01c6c733          	xor	a4,a3,t3
   11208:	0697c813          	xori	a6,a5,105
   1120c:	fffec313          	xori	t1,t4,-1
   11210:	fffe4593          	xori	a1,t3,-1
   11214:	fff64693          	xori	a3,a2,-1
   11218:	fff74893          	xori	a7,a4,-1
   1121c:	f967c793          	xori	a5,a5,-106
   11220:	8df9                	c.and	a1,a4
   11222:	01037333          	and	t1,t1,a6
   11226:	01d6f6b3          	and	a3,a3,t4
   1122a:	01c7f7b3          	and	a5,a5,t3
   1122e:	00c8f8b3          	and	a7,a7,a2
   11232:	8eb9                	c.xor	a3,a4
   11234:	00c34333          	xor	t1,t1,a2
   11238:	01d7c7b3          	xor	a5,a5,t4
   1123c:	0105c633          	xor	a2,a1,a6
   11240:	01c8c8b3          	xor	a7,a7,t3
   11244:	0067c7b3          	xor	a5,a5,t1
   11248:	00c8c8b3          	xor	a7,a7,a2
   1124c:	03969f93          	slli	t6,a3,0x39
   11250:	fff64613          	xori	a2,a2,-1
   11254:	0296d713          	srli	a4,a3,0x29
   11258:	0076df13          	srli	t5,a3,0x7
   1125c:	01769593          	slli	a1,a3,0x17
   11260:	00d34833          	xor	a6,t1,a3
   11264:	03d7da93          	srli	s5,a5,0x3d
   11268:	0277da13          	srli	s4,a5,0x27
   1126c:	03689993          	slli	s3,a7,0x36
   11270:	02f89913          	slli	s2,a7,0x2f
   11274:	8dd9                	c.or	a1,a4
   11276:	03f61493          	slli	s1,a2,0x3f
   1127a:	03a61413          	slli	s0,a2,0x3a
   1127e:	00379e93          	slli	t4,a5,0x3
   11282:	01979393          	slli	t2,a5,0x19
   11286:	00a8de13          	srli	t3,a7,0xa
   1128a:	0118d293          	srli	t0,a7,0x11
   1128e:	01ff6f33          	or	t5,t5,t6
   11292:	00165713          	srli	a4,a2,0x1
   11296:	00665f93          	srli	t6,a2,0x6
   1129a:	00bf4f33          	xor	t5,t5,a1
   1129e:	0143e3b3          	or	t2,t2,s4
   112a2:	0122e2b3          	or	t0,t0,s2
   112a6:	008fefb3          	or	t6,t6,s0
   112aa:	015eeeb3          	or	t4,t4,s5
   112ae:	02d81413          	slli	s0,a6,0x2d
   112b2:	013e6e33          	or	t3,t3,s3
   112b6:	8f45                	c.or	a4,s1
   112b8:	01385593          	srli	a1,a6,0x13
   112bc:	01f74733          	xor	a4,a4,t6
   112c0:	01e34333          	xor	t1,t1,t5
   112c4:	01c85f93          	srli	t6,a6,0x1c
   112c8:	007eceb3          	xor	t4,t4,t2
   112cc:	005e4e33          	xor	t3,t3,t0
   112d0:	8dc1                	c.or	a1,s0
   112d2:	1812                	c.slli	a6,0x24
   112d4:	00feceb3          	xor	t4,t4,a5
   112d8:	011e4e33          	xor	t3,t3,a7
   112dc:	00c747b3          	xor	a5,a4,a2
   112e0:	01e6c6b3          	xor	a3,a3,t5
   112e4:	010fe733          	or	a4,t6,a6
   112e8:	0065c5b3          	xor	a1,a1,t1
   112ec:	01c6c633          	xor	a2,a3,t3
   112f0:	8db9                	c.xor	a1,a4
   112f2:	01d7c7b3          	xor	a5,a5,t4
   112f6:	05a7cf13          	xori	t5,a5,90
   112fa:	fffe4813          	xori	a6,t3,-1
   112fe:	fffec313          	xori	t1,t4,-1
   11302:	fff5c693          	xori	a3,a1,-1
   11306:	fa57c713          	xori	a4,a5,-91
   1130a:	fff64893          	xori	a7,a2,-1
   1130e:	00c877b3          	and	a5,a6,a2
   11312:	01e37333          	and	t1,t1,t5
   11316:	01d6f6b3          	and	a3,a3,t4
   1131a:	01c77733          	and	a4,a4,t3
   1131e:	00b8f8b3          	and	a7,a7,a1
   11322:	8eb1                	c.xor	a3,a2
   11324:	00b34333          	xor	t1,t1,a1
   11328:	01d74733          	xor	a4,a4,t4
   1132c:	01e7c5b3          	xor	a1,a5,t5
   11330:	01c8c8b3          	xor	a7,a7,t3
   11334:	00674733          	xor	a4,a4,t1
   11338:	00b8c8b3          	xor	a7,a7,a1
   1133c:	03969f93          	slli	t6,a3,0x39
   11340:	fff5c593          	xori	a1,a1,-1
   11344:	0296d793          	srli	a5,a3,0x29
   11348:	0076df13          	srli	t5,a3,0x7
   1134c:	01769613          	slli	a2,a3,0x17
   11350:	00d34833          	xor	a6,t1,a3
   11354:	03d75a93          	srli	s5,a4,0x3d
   11358:	02775a13          	srli	s4,a4,0x27
   1135c:	03689993          	slli	s3,a7,0x36
   11360:	02f89913          	slli	s2,a7,0x2f
   11364:	8e5d                	c.or	a2,a5
   11366:	03f59493          	slli	s1,a1,0x3f
   1136a:	03a59413          	slli	s0,a1,0x3a
   1136e:	00371e93          	slli	t4,a4,0x3
   11372:	01971393          	slli	t2,a4,0x19
   11376:	00a8de13          	srli	t3,a7,0xa
   1137a:	0118d293          	srli	t0,a7,0x11
   1137e:	01ff6f33          	or	t5,t5,t6
   11382:	0015d793          	srli	a5,a1,0x1
   11386:	0065df93          	srli	t6,a1,0x6
   1138a:	00cf4f33          	xor	t5,t5,a2
   1138e:	0143e3b3          	or	t2,t2,s4
   11392:	0122e2b3          	or	t0,t0,s2
   11396:	008fefb3          	or	t6,t6,s0
   1139a:	015eeeb3          	or	t4,t4,s5
   1139e:	02d81413          	slli	s0,a6,0x2d
   113a2:	013e6e33          	or	t3,t3,s3
   113a6:	8fc5                	c.or	a5,s1
   113a8:	01385613          	srli	a2,a6,0x13
   113ac:	01e34333          	xor	t1,t1,t5
   113b0:	007eceb3          	xor	t4,t4,t2
   113b4:	005e4e33          	xor	t3,t3,t0
   113b8:	01f7c7b3          	xor	a5,a5,t6
   113bc:	8e41                	c.or	a2,s0
   113be:	01c85f93          	srli	t6,a6,0x1c
   113c2:	1812                	c.slli	a6,0x24
   113c4:	00eeceb3          	xor	t4,t4,a4
   113c8:	011e4e33          	xor	t3,t3,a7
   113cc:	010fe733          	or	a4,t6,a6
   113d0:	8fad                	c.xor	a5,a1
   113d2:	00664633          	xor	a2,a2,t1
   113d6:	01e6c6b3          	xor	a3,a3,t5
   113da:	8e39                	c.xor	a2,a4
   113dc:	01c6c6b3          	xor	a3,a3,t3
   113e0:	01d7c7b3          	xor	a5,a5,t4
   113e4:	04b7c313          	xori	t1,a5,75
   113e8:	fffec593          	xori	a1,t4,-1
   113ec:	fffe4713          	xori	a4,t3,-1
   113f0:	fff64893          	xori	a7,a2,-1
   113f4:	fff6c813          	xori	a6,a3,-1
   113f8:	fb47c793          	xori	a5,a5,-76
   113fc:	0065f5b3          	and	a1,a1,t1
   11400:	8f75                	c.and	a4,a3
   11402:	01d8f8b3          	and	a7,a7,t4
   11406:	01c7f7b3          	and	a5,a5,t3
   1140a:	00c87833          	and	a6,a6,a2
   1140e:	00d8c8b3          	xor	a7,a7,a3
   11412:	8db1                	c.xor	a1,a2
   11414:	00674733          	xor	a4,a4,t1
   11418:	01d7c7b3          	xor	a5,a5,t4
   1141c:	01c84833          	xor	a6,a6,t3
   11420:	8fad                	c.xor	a5,a1
   11422:	00e84833          	xor	a6,a6,a4
   11426:	0115c5b3          	xor	a1,a1,a7
   1142a:	fff74713          	xori	a4,a4,-1
   1142e:	02d59d13          	slli	s10,a1,0x2d
   11432:	02459c93          	slli	s9,a1,0x24
   11436:	03d7dc13          	srli	s8,a5,0x3d
   1143a:	0277db93          	srli	s7,a5,0x27
   1143e:	03f71b13          	slli	s6,a4,0x3f
   11442:	03a71a93          	slli	s5,a4,0x3a
   11446:	0135de93          	srli	t4,a1,0x13
   1144a:	01c5d413          	srli	s0,a1,0x1c
   1144e:	00379e13          	slli	t3,a5,0x3
   11452:	01979393          	slli	t2,a5,0x19
   11456:	00175313          	srli	t1,a4,0x1
   1145a:	00675293          	srli	t0,a4,0x6
   1145e:	03681a13          	slli	s4,a6,0x36
   11462:	02f81993          	slli	s3,a6,0x2f
   11466:	03989913          	slli	s2,a7,0x39
   1146a:	0298d493          	srli	s1,a7,0x29
   1146e:	00a85613          	srli	a2,a6,0xa
   11472:	01185f93          	srli	t6,a6,0x11
   11476:	0078d693          	srli	a3,a7,0x7
   1147a:	01789f13          	slli	t5,a7,0x17
   1147e:	01946433          	or	s0,s0,s9
   11482:	01aeeeb3          	or	t4,t4,s10
   11486:	018e6e33          	or	t3,t3,s8
   1148a:	0173e3b3          	or	t2,t2,s7
   1148e:	01636333          	or	t1,t1,s6
   11492:	0152e2b3          	or	t0,t0,s5
   11496:	01466633          	or	a2,a2,s4
   1149a:	013fefb3          	or	t6,t6,s3
   1149e:	0126e6b3          	or	a3,a3,s2
   114a2:	009f6f33          	or	t5,t5,s1
   114a6:	008eceb3          	xor	t4,t4,s0
   114aa:	007e4e33          	xor	t3,t3,t2
   114ae:	6466                	c.ldsp	s0,88(sp)
   114b0:	00534333          	xor	t1,t1,t0
   114b4:	01f64633          	xor	a2,a2,t6
   114b8:	01e6c6b3          	xor	a3,a3,t5
   114bc:	00beceb3          	xor	t4,t4,a1
   114c0:	00fe4e33          	xor	t3,t3,a5
   114c4:	00e345b3          	xor	a1,t1,a4
   114c8:	0116c7b3          	xor	a5,a3,a7
   114cc:	01064733          	xor	a4,a2,a6
   114d0:	01d53023          	sd	t4,0(a0)
   114d4:	01c53423          	sd	t3,8(a0)
   114d8:	e90c                	c.sd	a1,16(a0)
   114da:	ed18                	c.sd	a4,24(a0)
   114dc:	f11c                	c.sd	a5,32(a0)
   114de:	64c6                	c.ldsp	s1,80(sp)
   114e0:	6926                	c.ldsp	s2,72(sp)
   114e2:	6986                	c.ldsp	s3,64(sp)
   114e4:	7a62                	c.ldsp	s4,56(sp)
   114e6:	7ac2                	c.ldsp	s5,48(sp)
   114e8:	7b22                	c.ldsp	s6,40(sp)
   114ea:	7b82                	c.ldsp	s7,32(sp)
   114ec:	6c62                	c.ldsp	s8,24(sp)
   114ee:	6cc2                	c.ldsp	s9,16(sp)
   114f0:	6d22                	c.ldsp	s10,8(sp)
   114f2:	6125                	c.addi16sp	sp,96
   114f4:	8082                	c.jr	ra

00000000000114f6 <P12>:
   114f6:	6d10                	c.ld	a2,24(a0)
   114f8:	00853e03          	ld	t3,8(a0)
   114fc:	7114                	c.ld	a3,32(a0)
   114fe:	6118                	c.ld	a4,0(a0)
   11500:	691c                	c.ld	a5,16(a0)
   11502:	00c6ceb3          	xor	t4,a3,a2
   11506:	fff64593          	xori	a1,a2,-1
   1150a:	8eb9                	c.xor	a3,a4
   1150c:	00fe47b3          	xor	a5,t3,a5
   11510:	0f07cf13          	xori	t5,a5,240
   11514:	fffe4893          	xori	a7,t3,-1
   11518:	01d5f5b3          	and	a1,a1,t4
   1151c:	fff6c313          	xori	t1,a3,-1
   11520:	f0f7c713          	xori	a4,a5,-241
   11524:	fffec813          	xori	a6,t4,-1
   11528:	01e5c5b3          	xor	a1,a1,t5
   1152c:	01e8f8b3          	and	a7,a7,t5
   11530:	01c37333          	and	t1,t1,t3
   11534:	8f71                	c.and	a4,a2
   11536:	00d87833          	and	a6,a6,a3
   1153a:	01d34333          	xor	t1,t1,t4
   1153e:	00d8c8b3          	xor	a7,a7,a3
   11542:	01c74733          	xor	a4,a4,t3
   11546:	00b84833          	xor	a6,a6,a1
   1154a:	711d                	c.addi16sp	sp,-96
   1154c:	01174733          	xor	a4,a4,a7
   11550:	00c84833          	xor	a6,a6,a2
   11554:	0068c8b3          	xor	a7,a7,t1
   11558:	fff5c593          	xori	a1,a1,-1
   1155c:	eca2                	c.sdsp	s0,88(sp)
   1155e:	e8a6                	c.sdsp	s1,80(sp)
   11560:	e4ca                	c.sdsp	s2,72(sp)
   11562:	e0ce                	c.sdsp	s3,64(sp)
   11564:	fc52                	c.sdsp	s4,56(sp)
   11566:	f856                	c.sdsp	s5,48(sp)
   11568:	f45a                	c.sdsp	s6,40(sp)
   1156a:	f05e                	c.sdsp	s7,32(sp)
   1156c:	ec62                	c.sdsp	s8,24(sp)
   1156e:	e866                	c.sdsp	s9,16(sp)
   11570:	e46a                	c.sdsp	s10,8(sp)
   11572:	02775c93          	srli	s9,a4,0x27
   11576:	03d75d13          	srli	s10,a4,0x3d
   1157a:	03681c13          	slli	s8,a6,0x36
   1157e:	02f81b93          	slli	s7,a6,0x2f
   11582:	03931b13          	slli	s6,t1,0x39
   11586:	02935a93          	srli	s5,t1,0x29
   1158a:	03f59a13          	slli	s4,a1,0x3f
   1158e:	03a59993          	slli	s3,a1,0x3a
   11592:	02d89913          	slli	s2,a7,0x2d
   11596:	02489493          	slli	s1,a7,0x24
   1159a:	00371e13          	slli	t3,a4,0x3
   1159e:	01971413          	slli	s0,a4,0x19
   115a2:	00a85e93          	srli	t4,a6,0xa
   115a6:	01185393          	srli	t2,a6,0x11
   115aa:	00735613          	srli	a2,t1,0x7
   115ae:	01731293          	slli	t0,t1,0x17
   115b2:	0015d793          	srli	a5,a1,0x1
   115b6:	0065df93          	srli	t6,a1,0x6
   115ba:	0138d693          	srli	a3,a7,0x13
   115be:	01c8df13          	srli	t5,a7,0x1c
   115c2:	01946433          	or	s0,s0,s9
   115c6:	0173e3b3          	or	t2,t2,s7
   115ca:	0152e2b3          	or	t0,t0,s5
   115ce:	013fefb3          	or	t6,t6,s3
   115d2:	009f6f33          	or	t5,t5,s1
   115d6:	01ae6e33          	or	t3,t3,s10
   115da:	018eeeb3          	or	t4,t4,s8
   115de:	01666633          	or	a2,a2,s6
   115e2:	0147e7b3          	or	a5,a5,s4
   115e6:	0126e6b3          	or	a3,a3,s2
   115ea:	007eceb3          	xor	t4,t4,t2
   115ee:	01e6c6b3          	xor	a3,a3,t5
   115f2:	008e4e33          	xor	t3,t3,s0
   115f6:	00564633          	xor	a2,a2,t0
   115fa:	01f7c7b3          	xor	a5,a5,t6
   115fe:	00ee4e33          	xor	t3,t3,a4
   11602:	010ec833          	xor	a6,t4,a6
   11606:	00664633          	xor	a2,a2,t1
   1160a:	0116c733          	xor	a4,a3,a7
   1160e:	8fad                	c.xor	a5,a1
   11610:	8f31                	c.xor	a4,a2
   11612:	01c7c7b3          	xor	a5,a5,t3
   11616:	00c84633          	xor	a2,a6,a2
   1161a:	0e17ce93          	xori	t4,a5,225
   1161e:	fffe4313          	xori	t1,t3,-1
   11622:	fff84593          	xori	a1,a6,-1
   11626:	fff74693          	xori	a3,a4,-1
   1162a:	fff64893          	xori	a7,a2,-1
   1162e:	f1e7c793          	xori	a5,a5,-226
   11632:	01d37333          	and	t1,t1,t4
   11636:	8df1                	c.and	a1,a2
   11638:	01c6f6b3          	and	a3,a3,t3
   1163c:	0107f7b3          	and	a5,a5,a6
   11640:	00e8f8b3          	and	a7,a7,a4
   11644:	8eb1                	c.xor	a3,a2
   11646:	00e34333          	xor	t1,t1,a4
   1164a:	01d5c5b3          	xor	a1,a1,t4
   1164e:	01c7c7b3          	xor	a5,a5,t3
   11652:	0108c8b3          	xor	a7,a7,a6
   11656:	0067c7b3          	xor	a5,a5,t1
   1165a:	00b8c8b3          	xor	a7,a7,a1
   1165e:	03969f93          	slli	t6,a3,0x39
   11662:	fff5c593          	xori	a1,a1,-1
   11666:	0296d713          	srli	a4,a3,0x29
   1166a:	0076df13          	srli	t5,a3,0x7
   1166e:	01769613          	slli	a2,a3,0x17
   11672:	00d34833          	xor	a6,t1,a3
   11676:	03d7da93          	srli	s5,a5,0x3d
   1167a:	0277da13          	srli	s4,a5,0x27
   1167e:	03689993          	slli	s3,a7,0x36
   11682:	02f89913          	slli	s2,a7,0x2f
   11686:	8e59                	c.or	a2,a4
   11688:	03f59493          	slli	s1,a1,0x3f
   1168c:	03a59413          	slli	s0,a1,0x3a
   11690:	00379e93          	slli	t4,a5,0x3
   11694:	01979393          	slli	t2,a5,0x19
   11698:	00a8de13          	srli	t3,a7,0xa
   1169c:	0118d293          	srli	t0,a7,0x11
   116a0:	01ff6f33          	or	t5,t5,t6
   116a4:	0015d713          	srli	a4,a1,0x1
   116a8:	0065df93          	srli	t6,a1,0x6
   116ac:	00cf4f33          	xor	t5,t5,a2
   116b0:	0143e3b3          	or	t2,t2,s4
   116b4:	0122e2b3          	or	t0,t0,s2
   116b8:	008fefb3          	or	t6,t6,s0
   116bc:	015eeeb3          	or	t4,t4,s5
   116c0:	02d81413          	slli	s0,a6,0x2d
   116c4:	013e6e33          	or	t3,t3,s3
   116c8:	8f45                	c.or	a4,s1
   116ca:	01385613          	srli	a2,a6,0x13
   116ce:	01f74733          	xor	a4,a4,t6
   116d2:	01e34333          	xor	t1,t1,t5
   116d6:	01c85f93          	srli	t6,a6,0x1c
   116da:	007eceb3          	xor	t4,t4,t2
   116de:	005e4e33          	xor	t3,t3,t0
   116e2:	8e41                	c.or	a2,s0
   116e4:	1812                	c.slli	a6,0x24
   116e6:	00feceb3          	xor	t4,t4,a5
   116ea:	011e4e33          	xor	t3,t3,a7
   116ee:	00b747b3          	xor	a5,a4,a1
   116f2:	01e6c6b3          	xor	a3,a3,t5
   116f6:	010fe733          	or	a4,t6,a6
   116fa:	00664633          	xor	a2,a2,t1
   116fe:	8e39                	c.xor	a2,a4
   11700:	01d7c7b3          	xor	a5,a5,t4
   11704:	01c6c733          	xor	a4,a3,t3
   11708:	0d27c813          	xori	a6,a5,210
   1170c:	fffec313          	xori	t1,t4,-1
   11710:	fffe4593          	xori	a1,t3,-1
   11714:	fff64693          	xori	a3,a2,-1
   11718:	fff74893          	xori	a7,a4,-1
   1171c:	f2d7c793          	xori	a5,a5,-211
   11720:	01037333          	and	t1,t1,a6
   11724:	8df9                	c.and	a1,a4
   11726:	01d6f6b3          	and	a3,a3,t4
   1172a:	01c7f7b3          	and	a5,a5,t3
   1172e:	00c8f8b3          	and	a7,a7,a2
   11732:	8eb9                	c.xor	a3,a4
   11734:	00c34333          	xor	t1,t1,a2
   11738:	0105c5b3          	xor	a1,a1,a6
   1173c:	01d7c7b3          	xor	a5,a5,t4
   11740:	01c8c8b3          	xor	a7,a7,t3
   11744:	0067c7b3          	xor	a5,a5,t1
   11748:	00b8c8b3          	xor	a7,a7,a1
   1174c:	03969f93          	slli	t6,a3,0x39
   11750:	fff5c593          	xori	a1,a1,-1
   11754:	0296d713          	srli	a4,a3,0x29
   11758:	0076df13          	srli	t5,a3,0x7
   1175c:	01769613          	slli	a2,a3,0x17
   11760:	00d34833          	xor	a6,t1,a3
   11764:	03d7da93          	srli	s5,a5,0x3d
   11768:	0277da13          	srli	s4,a5,0x27
   1176c:	03689993          	slli	s3,a7,0x36
   11770:	02f89913          	slli	s2,a7,0x2f
   11774:	8e59                	c.or	a2,a4
   11776:	03f59493          	slli	s1,a1,0x3f
   1177a:	03a59413          	slli	s0,a1,0x3a
   1177e:	00379e93          	slli	t4,a5,0x3
   11782:	01979393          	slli	t2,a5,0x19
   11786:	00a8de13          	srli	t3,a7,0xa
   1178a:	0118d293          	srli	t0,a7,0x11
   1178e:	01ff6f33          	or	t5,t5,t6
   11792:	0015d713          	srli	a4,a1,0x1
   11796:	0065df93          	srli	t6,a1,0x6
   1179a:	00cf4f33          	xor	t5,t5,a2
   1179e:	0143e3b3          	or	t2,t2,s4
   117a2:	0122e2b3          	or	t0,t0,s2
   117a6:	008fefb3          	or	t6,t6,s0
   117aa:	015eeeb3          	or	t4,t4,s5
   117ae:	02d81413          	slli	s0,a6,0x2d
   117b2:	013e6e33          	or	t3,t3,s3
   117b6:	8f45                	c.or	a4,s1
   117b8:	01385613          	srli	a2,a6,0x13
   117bc:	01f74733          	xor	a4,a4,t6
   117c0:	01e34333          	xor	t1,t1,t5
   117c4:	01c85f93          	srli	t6,a6,0x1c
   117c8:	007eceb3          	xor	t4,t4,t2
   117cc:	005e4e33          	xor	t3,t3,t0
   117d0:	8e41                	c.or	a2,s0
   117d2:	1812                	c.slli	a6,0x24
   117d4:	00feceb3          	xor	t4,t4,a5
   117d8:	011e4e33          	xor	t3,t3,a7
   117dc:	00b747b3          	xor	a5,a4,a1
   117e0:	01e6c6b3          	xor	a3,a3,t5
   117e4:	010fe733          	or	a4,t6,a6
   117e8:	00664633          	xor	a2,a2,t1
   117ec:	8e39                	c.xor	a2,a4
   117ee:	01d7c7b3          	xor	a5,a5,t4
   117f2:	01c6c733          	xor	a4,a3,t3
   117f6:	0c37c813          	xori	a6,a5,195
   117fa:	fffec313          	xori	t1,t4,-1
   117fe:	fffe4593          	xori	a1,t3,-1
   11802:	fff64693          	xori	a3,a2,-1
   11806:	fff74893          	xori	a7,a4,-1
   1180a:	f3c7c793          	xori	a5,a5,-196
   1180e:	01037333          	and	t1,t1,a6
   11812:	8df9                	c.and	a1,a4
   11814:	01d6f6b3          	and	a3,a3,t4
   11818:	01c7f7b3          	and	a5,a5,t3
   1181c:	00c8f8b3          	and	a7,a7,a2
   11820:	8eb9                	c.xor	a3,a4
   11822:	00c34333          	xor	t1,t1,a2
   11826:	0105c5b3          	xor	a1,a1,a6
   1182a:	01d7c7b3          	xor	a5,a5,t4
   1182e:	01c8c8b3          	xor	a7,a7,t3
   11832:	0067c7b3          	xor	a5,a5,t1
   11836:	00b8c8b3          	xor	a7,a7,a1
   1183a:	03969f93          	slli	t6,a3,0x39
   1183e:	fff5c593          	xori	a1,a1,-1
   11842:	0296d713          	srli	a4,a3,0x29
   11846:	0076df13          	srli	t5,a3,0x7
   1184a:	01769613          	slli	a2,a3,0x17
   1184e:	00d34833          	xor	a6,t1,a3
   11852:	03d7da93          	srli	s5,a5,0x3d
   11856:	0277da13          	srli	s4,a5,0x27
   1185a:	03689993          	slli	s3,a7,0x36
   1185e:	02f89913          	slli	s2,a7,0x2f
   11862:	8e59                	c.or	a2,a4
   11864:	03f59493          	slli	s1,a1,0x3f
   11868:	03a59413          	slli	s0,a1,0x3a
   1186c:	00379e93          	slli	t4,a5,0x3
   11870:	01979393          	slli	t2,a5,0x19
   11874:	00a8de13          	srli	t3,a7,0xa
   11878:	0118d293          	srli	t0,a7,0x11
   1187c:	01ff6f33          	or	t5,t5,t6
   11880:	0015d713          	srli	a4,a1,0x1
   11884:	0065df93          	srli	t6,a1,0x6
   11888:	00cf4f33          	xor	t5,t5,a2
   1188c:	0143e3b3          	or	t2,t2,s4
   11890:	0122e2b3          	or	t0,t0,s2
   11894:	008fefb3          	or	t6,t6,s0
   11898:	015eeeb3          	or	t4,t4,s5
   1189c:	02d81413          	slli	s0,a6,0x2d
   118a0:	013e6e33          	or	t3,t3,s3
   118a4:	8f45                	c.or	a4,s1
   118a6:	01385613          	srli	a2,a6,0x13
   118aa:	01f74733          	xor	a4,a4,t6
   118ae:	01e34333          	xor	t1,t1,t5
   118b2:	01c85f93          	srli	t6,a6,0x1c
   118b6:	007eceb3          	xor	t4,t4,t2
   118ba:	005e4e33          	xor	t3,t3,t0
   118be:	8e41                	c.or	a2,s0
   118c0:	1812                	c.slli	a6,0x24
   118c2:	00feceb3          	xor	t4,t4,a5
   118c6:	011e4e33          	xor	t3,t3,a7
   118ca:	00b747b3          	xor	a5,a4,a1
   118ce:	01e6c6b3          	xor	a3,a3,t5
   118d2:	010fe733          	or	a4,t6,a6
   118d6:	00664633          	xor	a2,a2,t1
   118da:	8e39                	c.xor	a2,a4
   118dc:	01d7c7b3          	xor	a5,a5,t4
   118e0:	01c6c733          	xor	a4,a3,t3
   118e4:	0b47c813          	xori	a6,a5,180
   118e8:	fffec313          	xori	t1,t4,-1
   118ec:	fffe4593          	xori	a1,t3,-1
   118f0:	fff64693          	xori	a3,a2,-1
   118f4:	fff74893          	xori	a7,a4,-1
   118f8:	f4b7c793          	xori	a5,a5,-181
   118fc:	01037333          	and	t1,t1,a6
   11900:	8df9                	c.and	a1,a4
   11902:	01d6f6b3          	and	a3,a3,t4
   11906:	01c7f7b3          	and	a5,a5,t3
   1190a:	00c8f8b3          	and	a7,a7,a2
   1190e:	8eb9                	c.xor	a3,a4
   11910:	00c34333          	xor	t1,t1,a2
   11914:	0105c5b3          	xor	a1,a1,a6
   11918:	01d7c7b3          	xor	a5,a5,t4
   1191c:	01c8c8b3          	xor	a7,a7,t3
   11920:	0067c7b3          	xor	a5,a5,t1
   11924:	00b8c8b3          	xor	a7,a7,a1
   11928:	03969f93          	slli	t6,a3,0x39
   1192c:	fff5c593          	xori	a1,a1,-1
   11930:	0296d713          	srli	a4,a3,0x29
   11934:	0076df13          	srli	t5,a3,0x7
   11938:	01769613          	slli	a2,a3,0x17
   1193c:	00d34833          	xor	a6,t1,a3
   11940:	03d7da93          	srli	s5,a5,0x3d
   11944:	0277da13          	srli	s4,a5,0x27
   11948:	03689993          	slli	s3,a7,0x36
   1194c:	02f89913          	slli	s2,a7,0x2f
   11950:	8e59                	c.or	a2,a4
   11952:	03f59493          	slli	s1,a1,0x3f
   11956:	03a59413          	slli	s0,a1,0x3a
   1195a:	00379e93          	slli	t4,a5,0x3
   1195e:	01979393          	slli	t2,a5,0x19
   11962:	00a8de13          	srli	t3,a7,0xa
   11966:	0118d293          	srli	t0,a7,0x11
   1196a:	01ff6f33          	or	t5,t5,t6
   1196e:	0015d713          	srli	a4,a1,0x1
   11972:	0065df93          	srli	t6,a1,0x6
   11976:	00cf4f33          	xor	t5,t5,a2
   1197a:	0143e3b3          	or	t2,t2,s4
   1197e:	0122e2b3          	or	t0,t0,s2
   11982:	008fefb3          	or	t6,t6,s0
   11986:	015eeeb3          	or	t4,t4,s5
   1198a:	02d81413          	slli	s0,a6,0x2d
   1198e:	013e6e33          	or	t3,t3,s3
   11992:	8f45                	c.or	a4,s1
   11994:	01385613          	srli	a2,a6,0x13
   11998:	01f74733          	xor	a4,a4,t6
   1199c:	01e34333          	xor	t1,t1,t5
   119a0:	01c85f93          	srli	t6,a6,0x1c
   119a4:	007eceb3          	xor	t4,t4,t2
   119a8:	005e4e33          	xor	t3,t3,t0
   119ac:	8e41                	c.or	a2,s0
   119ae:	1812                	c.slli	a6,0x24
   119b0:	00feceb3          	xor	t4,t4,a5
   119b4:	011e4e33          	xor	t3,t3,a7
   119b8:	00b747b3          	xor	a5,a4,a1
   119bc:	01e6c6b3          	xor	a3,a3,t5
   119c0:	010fe733          	or	a4,t6,a6
   119c4:	00664633          	xor	a2,a2,t1
   119c8:	8e39                	c.xor	a2,a4
   119ca:	01d7c7b3          	xor	a5,a5,t4
   119ce:	01c6c733          	xor	a4,a3,t3
   119d2:	0a57c813          	xori	a6,a5,165
   119d6:	fffec313          	xori	t1,t4,-1
   119da:	fffe4593          	xori	a1,t3,-1
   119de:	fff64693          	xori	a3,a2,-1
   119e2:	fff74893          	xori	a7,a4,-1
   119e6:	f5a7c793          	xori	a5,a5,-166
   119ea:	01037333          	and	t1,t1,a6
   119ee:	8df9                	c.and	a1,a4
   119f0:	01d6f6b3          	and	a3,a3,t4
   119f4:	01c7f7b3          	and	a5,a5,t3
   119f8:	00c8f8b3          	and	a7,a7,a2
   119fc:	8eb9                	c.xor	a3,a4
   119fe:	00c34333          	xor	t1,t1,a2
   11a02:	0105c5b3          	xor	a1,a1,a6
   11a06:	01d7c7b3          	xor	a5,a5,t4
   11a0a:	01c8c8b3          	xor	a7,a7,t3
   11a0e:	0067c7b3          	xor	a5,a5,t1
   11a12:	00b8c8b3          	xor	a7,a7,a1
   11a16:	03969f93          	slli	t6,a3,0x39
   11a1a:	fff5c593          	xori	a1,a1,-1
   11a1e:	0296d713          	srli	a4,a3,0x29
   11a22:	0076df13          	srli	t5,a3,0x7
   11a26:	01769613          	slli	a2,a3,0x17
   11a2a:	00d34833          	xor	a6,t1,a3
   11a2e:	03d7da93          	srli	s5,a5,0x3d
   11a32:	0277da13          	srli	s4,a5,0x27
   11a36:	03689993          	slli	s3,a7,0x36
   11a3a:	02f89913          	slli	s2,a7,0x2f
   11a3e:	8e59                	c.or	a2,a4
   11a40:	03f59493          	slli	s1,a1,0x3f
   11a44:	03a59413          	slli	s0,a1,0x3a
   11a48:	00379e93          	slli	t4,a5,0x3
   11a4c:	01979393          	slli	t2,a5,0x19
   11a50:	00a8de13          	srli	t3,a7,0xa
   11a54:	0118d293          	srli	t0,a7,0x11
   11a58:	01ff6f33          	or	t5,t5,t6
   11a5c:	0015d713          	srli	a4,a1,0x1
   11a60:	0065df93          	srli	t6,a1,0x6
   11a64:	00cf4f33          	xor	t5,t5,a2
   11a68:	0143e3b3          	or	t2,t2,s4
   11a6c:	0122e2b3          	or	t0,t0,s2
   11a70:	008fefb3          	or	t6,t6,s0
   11a74:	015eeeb3          	or	t4,t4,s5
   11a78:	02d81413          	slli	s0,a6,0x2d
   11a7c:	013e6e33          	or	t3,t3,s3
   11a80:	8f45                	c.or	a4,s1
   11a82:	01385613          	srli	a2,a6,0x13
   11a86:	01f74733          	xor	a4,a4,t6
   11a8a:	01e34333          	xor	t1,t1,t5
   11a8e:	01c85f93          	srli	t6,a6,0x1c
   11a92:	007eceb3          	xor	t4,t4,t2
   11a96:	005e4e33          	xor	t3,t3,t0
   11a9a:	8e41                	c.or	a2,s0
   11a9c:	1812                	c.slli	a6,0x24
   11a9e:	00feceb3          	xor	t4,t4,a5
   11aa2:	011e4e33          	xor	t3,t3,a7
   11aa6:	00b747b3          	xor	a5,a4,a1
   11aaa:	01e6c6b3          	xor	a3,a3,t5
   11aae:	010fe733          	or	a4,t6,a6
   11ab2:	00664633          	xor	a2,a2,t1
   11ab6:	8e39                	c.xor	a2,a4
   11ab8:	01d7c7b3          	xor	a5,a5,t4
   11abc:	01c6c733          	xor	a4,a3,t3
   11ac0:	0967c813          	xori	a6,a5,150
   11ac4:	fffec313          	xori	t1,t4,-1
   11ac8:	fffe4593          	xori	a1,t3,-1
   11acc:	fff64693          	xori	a3,a2,-1
   11ad0:	fff74893          	xori	a7,a4,-1
   11ad4:	f697c793          	xori	a5,a5,-151
   11ad8:	01037333          	and	t1,t1,a6
   11adc:	8df9                	c.and	a1,a4
   11ade:	01d6f6b3          	and	a3,a3,t4
   11ae2:	01c7f7b3          	and	a5,a5,t3
   11ae6:	00c8f8b3          	and	a7,a7,a2
   11aea:	8eb9                	c.xor	a3,a4
   11aec:	00c34333          	xor	t1,t1,a2
   11af0:	0105c5b3          	xor	a1,a1,a6
   11af4:	01d7c7b3          	xor	a5,a5,t4
   11af8:	01c8c8b3          	xor	a7,a7,t3
   11afc:	0067c7b3          	xor	a5,a5,t1
   11b00:	00b8c8b3          	xor	a7,a7,a1
   11b04:	03969f93          	slli	t6,a3,0x39
   11b08:	fff5c593          	xori	a1,a1,-1
   11b0c:	0296d713          	srli	a4,a3,0x29
   11b10:	0076df13          	srli	t5,a3,0x7
   11b14:	01769613          	slli	a2,a3,0x17
   11b18:	00d34833          	xor	a6,t1,a3
   11b1c:	03d7da93          	srli	s5,a5,0x3d
   11b20:	0277da13          	srli	s4,a5,0x27
   11b24:	03689993          	slli	s3,a7,0x36
   11b28:	02f89913          	slli	s2,a7,0x2f
   11b2c:	8e59                	c.or	a2,a4
   11b2e:	03f59493          	slli	s1,a1,0x3f
   11b32:	03a59413          	slli	s0,a1,0x3a
   11b36:	00379e93          	slli	t4,a5,0x3
   11b3a:	01979393          	slli	t2,a5,0x19
   11b3e:	00a8de13          	srli	t3,a7,0xa
   11b42:	0118d293          	srli	t0,a7,0x11
   11b46:	01ff6f33          	or	t5,t5,t6
   11b4a:	0015d713          	srli	a4,a1,0x1
   11b4e:	0065df93          	srli	t6,a1,0x6
   11b52:	00cf4f33          	xor	t5,t5,a2
   11b56:	0143e3b3          	or	t2,t2,s4
   11b5a:	0122e2b3          	or	t0,t0,s2
   11b5e:	008fefb3          	or	t6,t6,s0
   11b62:	015eeeb3          	or	t4,t4,s5
   11b66:	02d81413          	slli	s0,a6,0x2d
   11b6a:	013e6e33          	or	t3,t3,s3
   11b6e:	8f45                	c.or	a4,s1
   11b70:	01385613          	srli	a2,a6,0x13
   11b74:	01f74733          	xor	a4,a4,t6
   11b78:	01e34333          	xor	t1,t1,t5
   11b7c:	01c85f93          	srli	t6,a6,0x1c
   11b80:	007eceb3          	xor	t4,t4,t2
   11b84:	005e4e33          	xor	t3,t3,t0
   11b88:	8e41                	c.or	a2,s0
   11b8a:	1812                	c.slli	a6,0x24
   11b8c:	00feceb3          	xor	t4,t4,a5
   11b90:	011e4e33          	xor	t3,t3,a7
   11b94:	00b747b3          	xor	a5,a4,a1
   11b98:	01e6c6b3          	xor	a3,a3,t5
   11b9c:	010fe733          	or	a4,t6,a6
   11ba0:	00664633          	xor	a2,a2,t1
   11ba4:	8e39                	c.xor	a2,a4
   11ba6:	01d7c7b3          	xor	a5,a5,t4
   11baa:	01c6c733          	xor	a4,a3,t3
   11bae:	0877c813          	xori	a6,a5,135
   11bb2:	fffec313          	xori	t1,t4,-1
   11bb6:	fffe4593          	xori	a1,t3,-1
   11bba:	fff64693          	xori	a3,a2,-1
   11bbe:	fff74893          	xori	a7,a4,-1
   11bc2:	f787c793          	xori	a5,a5,-136
   11bc6:	01037333          	and	t1,t1,a6
   11bca:	8df9                	c.and	a1,a4
   11bcc:	01d6f6b3          	and	a3,a3,t4
   11bd0:	01c7f7b3          	and	a5,a5,t3
   11bd4:	00c8f8b3          	and	a7,a7,a2
   11bd8:	8eb9                	c.xor	a3,a4
   11bda:	00c34333          	xor	t1,t1,a2
   11bde:	0105c5b3          	xor	a1,a1,a6
   11be2:	01d7c7b3          	xor	a5,a5,t4
   11be6:	01c8c8b3          	xor	a7,a7,t3
   11bea:	0067c7b3          	xor	a5,a5,t1
   11bee:	00b8c8b3          	xor	a7,a7,a1
   11bf2:	03969f93          	slli	t6,a3,0x39
   11bf6:	fff5c593          	xori	a1,a1,-1
   11bfa:	0296d713          	srli	a4,a3,0x29
   11bfe:	0076df13          	srli	t5,a3,0x7
   11c02:	01769613          	slli	a2,a3,0x17
   11c06:	00d34833          	xor	a6,t1,a3
   11c0a:	03d7da93          	srli	s5,a5,0x3d
   11c0e:	0277da13          	srli	s4,a5,0x27
   11c12:	03689993          	slli	s3,a7,0x36
   11c16:	02f89913          	slli	s2,a7,0x2f
   11c1a:	8e59                	c.or	a2,a4
   11c1c:	03f59493          	slli	s1,a1,0x3f
   11c20:	03a59413          	slli	s0,a1,0x3a
   11c24:	00379e93          	slli	t4,a5,0x3
   11c28:	01979393          	slli	t2,a5,0x19
   11c2c:	00a8de13          	srli	t3,a7,0xa
   11c30:	0118d293          	srli	t0,a7,0x11
   11c34:	01ff6f33          	or	t5,t5,t6
   11c38:	0015d713          	srli	a4,a1,0x1
   11c3c:	0065df93          	srli	t6,a1,0x6
   11c40:	00cf4f33          	xor	t5,t5,a2
   11c44:	0143e3b3          	or	t2,t2,s4
   11c48:	0122e2b3          	or	t0,t0,s2
   11c4c:	008fefb3          	or	t6,t6,s0
   11c50:	015eeeb3          	or	t4,t4,s5
   11c54:	02d81413          	slli	s0,a6,0x2d
   11c58:	013e6e33          	or	t3,t3,s3
   11c5c:	8f45                	c.or	a4,s1
   11c5e:	01385613          	srli	a2,a6,0x13
   11c62:	01f74733          	xor	a4,a4,t6
   11c66:	01e34333          	xor	t1,t1,t5
   11c6a:	01c85f93          	srli	t6,a6,0x1c
   11c6e:	007eceb3          	xor	t4,t4,t2
   11c72:	005e4e33          	xor	t3,t3,t0
   11c76:	8e41                	c.or	a2,s0
   11c78:	1812                	c.slli	a6,0x24
   11c7a:	00feceb3          	xor	t4,t4,a5
   11c7e:	011e4e33          	xor	t3,t3,a7
   11c82:	00b747b3          	xor	a5,a4,a1
   11c86:	01e6c6b3          	xor	a3,a3,t5
   11c8a:	010fe733          	or	a4,t6,a6
   11c8e:	00664633          	xor	a2,a2,t1
   11c92:	8e39                	c.xor	a2,a4
   11c94:	01d7c7b3          	xor	a5,a5,t4
   11c98:	01c6c733          	xor	a4,a3,t3
   11c9c:	0787c813          	xori	a6,a5,120
   11ca0:	fffec313          	xori	t1,t4,-1
   11ca4:	fffe4593          	xori	a1,t3,-1
   11ca8:	fff64693          	xori	a3,a2,-1
   11cac:	fff74893          	xori	a7,a4,-1
   11cb0:	f877c793          	xori	a5,a5,-121
   11cb4:	01037333          	and	t1,t1,a6
   11cb8:	8df9                	c.and	a1,a4
   11cba:	01d6f6b3          	and	a3,a3,t4
   11cbe:	01c7f7b3          	and	a5,a5,t3
   11cc2:	00c8f8b3          	and	a7,a7,a2
   11cc6:	8eb9                	c.xor	a3,a4
   11cc8:	00c34333          	xor	t1,t1,a2
   11ccc:	0105c5b3          	xor	a1,a1,a6
   11cd0:	01d7c7b3          	xor	a5,a5,t4
   11cd4:	01c8c8b3          	xor	a7,a7,t3
   11cd8:	0067c7b3          	xor	a5,a5,t1
   11cdc:	00b8c8b3          	xor	a7,a7,a1
   11ce0:	03969f93          	slli	t6,a3,0x39
   11ce4:	fff5c593          	xori	a1,a1,-1
   11ce8:	0296d713          	srli	a4,a3,0x29
   11cec:	0076df13          	srli	t5,a3,0x7
   11cf0:	01769613          	slli	a2,a3,0x17
   11cf4:	00d34833          	xor	a6,t1,a3
   11cf8:	03d7da93          	srli	s5,a5,0x3d
   11cfc:	0277da13          	srli	s4,a5,0x27
   11d00:	03689993          	slli	s3,a7,0x36
   11d04:	02f89913          	slli	s2,a7,0x2f
   11d08:	8e59                	c.or	a2,a4
   11d0a:	03f59493          	slli	s1,a1,0x3f
   11d0e:	03a59413          	slli	s0,a1,0x3a
   11d12:	00379e93          	slli	t4,a5,0x3
   11d16:	01979393          	slli	t2,a5,0x19
   11d1a:	00a8de13          	srli	t3,a7,0xa
   11d1e:	0118d293          	srli	t0,a7,0x11
   11d22:	01ff6f33          	or	t5,t5,t6
   11d26:	0015d713          	srli	a4,a1,0x1
   11d2a:	0065df93          	srli	t6,a1,0x6
   11d2e:	00cf4f33          	xor	t5,t5,a2
   11d32:	0143e3b3          	or	t2,t2,s4
   11d36:	0122e2b3          	or	t0,t0,s2
   11d3a:	008fefb3          	or	t6,t6,s0
   11d3e:	015eeeb3          	or	t4,t4,s5
   11d42:	02d81413          	slli	s0,a6,0x2d
   11d46:	013e6e33          	or	t3,t3,s3
   11d4a:	8f45                	c.or	a4,s1
   11d4c:	01385613          	srli	a2,a6,0x13
   11d50:	01f74733          	xor	a4,a4,t6
   11d54:	01e34333          	xor	t1,t1,t5
   11d58:	01c85f93          	srli	t6,a6,0x1c
   11d5c:	007eceb3          	xor	t4,t4,t2
   11d60:	005e4e33          	xor	t3,t3,t0
   11d64:	8e41                	c.or	a2,s0
   11d66:	1812                	c.slli	a6,0x24
   11d68:	00feceb3          	xor	t4,t4,a5
   11d6c:	011e4e33          	xor	t3,t3,a7
   11d70:	00b747b3          	xor	a5,a4,a1
   11d74:	01e6c6b3          	xor	a3,a3,t5
   11d78:	010fe733          	or	a4,t6,a6
   11d7c:	00664633          	xor	a2,a2,t1
   11d80:	8e39                	c.xor	a2,a4
   11d82:	01d7c7b3          	xor	a5,a5,t4
   11d86:	01c6c733          	xor	a4,a3,t3
   11d8a:	0697c813          	xori	a6,a5,105
   11d8e:	fffec313          	xori	t1,t4,-1
   11d92:	fffe4593          	xori	a1,t3,-1
   11d96:	fff64693          	xori	a3,a2,-1
   11d9a:	fff74893          	xori	a7,a4,-1
   11d9e:	f967c793          	xori	a5,a5,-106
   11da2:	8df9                	c.and	a1,a4
   11da4:	01037333          	and	t1,t1,a6
   11da8:	01d6f6b3          	and	a3,a3,t4
   11dac:	01c7f7b3          	and	a5,a5,t3
   11db0:	00c8f8b3          	and	a7,a7,a2
   11db4:	8eb9                	c.xor	a3,a4
   11db6:	00c34333          	xor	t1,t1,a2
   11dba:	01d7c7b3          	xor	a5,a5,t4
   11dbe:	0105c633          	xor	a2,a1,a6
   11dc2:	01c8c8b3          	xor	a7,a7,t3
   11dc6:	0067c7b3          	xor	a5,a5,t1
   11dca:	00c8c8b3          	xor	a7,a7,a2
   11dce:	03969f93          	slli	t6,a3,0x39
   11dd2:	fff64613          	xori	a2,a2,-1
   11dd6:	0296d713          	srli	a4,a3,0x29
   11dda:	0076df13          	srli	t5,a3,0x7
   11dde:	01769593          	slli	a1,a3,0x17
   11de2:	00d34833          	xor	a6,t1,a3
   11de6:	03d7da93          	srli	s5,a5,0x3d
   11dea:	0277da13          	srli	s4,a5,0x27
   11dee:	03689993          	slli	s3,a7,0x36
   11df2:	02f89913          	slli	s2,a7,0x2f
   11df6:	8dd9                	c.or	a1,a4
   11df8:	03f61493          	slli	s1,a2,0x3f
   11dfc:	03a61413          	slli	s0,a2,0x3a
   11e00:	00379e93          	slli	t4,a5,0x3
   11e04:	01979393          	slli	t2,a5,0x19
   11e08:	00a8de13          	srli	t3,a7,0xa
   11e0c:	0118d293          	srli	t0,a7,0x11
   11e10:	01ff6f33          	or	t5,t5,t6
   11e14:	00165713          	srli	a4,a2,0x1
   11e18:	00665f93          	srli	t6,a2,0x6
   11e1c:	00bf4f33          	xor	t5,t5,a1
   11e20:	0143e3b3          	or	t2,t2,s4
   11e24:	0122e2b3          	or	t0,t0,s2
   11e28:	008fefb3          	or	t6,t6,s0
   11e2c:	015eeeb3          	or	t4,t4,s5
   11e30:	02d81413          	slli	s0,a6,0x2d
   11e34:	013e6e33          	or	t3,t3,s3
   11e38:	8f45                	c.or	a4,s1
   11e3a:	01385593          	srli	a1,a6,0x13
   11e3e:	01f74733          	xor	a4,a4,t6
   11e42:	01e34333          	xor	t1,t1,t5
   11e46:	01c85f93          	srli	t6,a6,0x1c
   11e4a:	007eceb3          	xor	t4,t4,t2
   11e4e:	005e4e33          	xor	t3,t3,t0
   11e52:	8dc1                	c.or	a1,s0
   11e54:	1812                	c.slli	a6,0x24
   11e56:	00feceb3          	xor	t4,t4,a5
   11e5a:	011e4e33          	xor	t3,t3,a7
   11e5e:	00c747b3          	xor	a5,a4,a2
   11e62:	01e6c6b3          	xor	a3,a3,t5
   11e66:	010fe733          	or	a4,t6,a6
   11e6a:	0065c5b3          	xor	a1,a1,t1
   11e6e:	01c6c633          	xor	a2,a3,t3
   11e72:	8db9                	c.xor	a1,a4
   11e74:	01d7c7b3          	xor	a5,a5,t4
   11e78:	05a7cf13          	xori	t5,a5,90
   11e7c:	fffe4813          	xori	a6,t3,-1
   11e80:	fffec313          	xori	t1,t4,-1
   11e84:	fff5c693          	xori	a3,a1,-1
   11e88:	fa57c713          	xori	a4,a5,-91
   11e8c:	fff64893          	xori	a7,a2,-1
   11e90:	00c877b3          	and	a5,a6,a2
   11e94:	01e37333          	and	t1,t1,t5
   11e98:	01d6f6b3          	and	a3,a3,t4
   11e9c:	01c77733          	and	a4,a4,t3
   11ea0:	00b8f8b3          	and	a7,a7,a1
   11ea4:	8eb1                	c.xor	a3,a2
   11ea6:	00b34333          	xor	t1,t1,a1
   11eaa:	01d74733          	xor	a4,a4,t4
   11eae:	01e7c5b3          	xor	a1,a5,t5
   11eb2:	01c8c8b3          	xor	a7,a7,t3
   11eb6:	00674733          	xor	a4,a4,t1
   11eba:	00b8c8b3          	xor	a7,a7,a1
   11ebe:	03969f93          	slli	t6,a3,0x39
   11ec2:	fff5c593          	xori	a1,a1,-1
   11ec6:	0296d793          	srli	a5,a3,0x29
   11eca:	0076df13          	srli	t5,a3,0x7
   11ece:	01769613          	slli	a2,a3,0x17
   11ed2:	00d34833          	xor	a6,t1,a3
   11ed6:	03d75a93          	srli	s5,a4,0x3d
   11eda:	02775a13          	srli	s4,a4,0x27
   11ede:	03689993          	slli	s3,a7,0x36
   11ee2:	02f89913          	slli	s2,a7,0x2f
   11ee6:	8e5d                	c.or	a2,a5
   11ee8:	03f59493          	slli	s1,a1,0x3f
   11eec:	03a59413          	slli	s0,a1,0x3a
   11ef0:	00371e93          	slli	t4,a4,0x3
   11ef4:	01971393          	slli	t2,a4,0x19
   11ef8:	00a8de13          	srli	t3,a7,0xa
   11efc:	0118d293          	srli	t0,a7,0x11
   11f00:	01ff6f33          	or	t5,t5,t6
   11f04:	0015d793          	srli	a5,a1,0x1
   11f08:	0065df93          	srli	t6,a1,0x6
   11f0c:	00cf4f33          	xor	t5,t5,a2
   11f10:	0143e3b3          	or	t2,t2,s4
   11f14:	0122e2b3          	or	t0,t0,s2
   11f18:	008fefb3          	or	t6,t6,s0
   11f1c:	015eeeb3          	or	t4,t4,s5
   11f20:	02d81413          	slli	s0,a6,0x2d
   11f24:	013e6e33          	or	t3,t3,s3
   11f28:	8fc5                	c.or	a5,s1
   11f2a:	01385613          	srli	a2,a6,0x13
   11f2e:	01e34333          	xor	t1,t1,t5
   11f32:	007eceb3          	xor	t4,t4,t2
   11f36:	005e4e33          	xor	t3,t3,t0
   11f3a:	01f7c7b3          	xor	a5,a5,t6
   11f3e:	8e41                	c.or	a2,s0
   11f40:	01c85f93          	srli	t6,a6,0x1c
   11f44:	1812                	c.slli	a6,0x24
   11f46:	00eeceb3          	xor	t4,t4,a4
   11f4a:	011e4e33          	xor	t3,t3,a7
   11f4e:	010fe733          	or	a4,t6,a6
   11f52:	8fad                	c.xor	a5,a1
   11f54:	00664633          	xor	a2,a2,t1
   11f58:	01e6c6b3          	xor	a3,a3,t5
   11f5c:	8e39                	c.xor	a2,a4
   11f5e:	01c6c6b3          	xor	a3,a3,t3
   11f62:	01d7c7b3          	xor	a5,a5,t4
   11f66:	04b7c313          	xori	t1,a5,75
   11f6a:	fffec593          	xori	a1,t4,-1
   11f6e:	fffe4713          	xori	a4,t3,-1
   11f72:	fff64893          	xori	a7,a2,-1
   11f76:	fff6c813          	xori	a6,a3,-1
   11f7a:	fb47c793          	xori	a5,a5,-76
   11f7e:	0065f5b3          	and	a1,a1,t1
   11f82:	8f75                	c.and	a4,a3
   11f84:	01d8f8b3          	and	a7,a7,t4
   11f88:	01c7f7b3          	and	a5,a5,t3
   11f8c:	00c87833          	and	a6,a6,a2
   11f90:	00d8c8b3          	xor	a7,a7,a3
   11f94:	8db1                	c.xor	a1,a2
   11f96:	00674733          	xor	a4,a4,t1
   11f9a:	01d7c7b3          	xor	a5,a5,t4
   11f9e:	01c84833          	xor	a6,a6,t3
   11fa2:	8fad                	c.xor	a5,a1
   11fa4:	00e84833          	xor	a6,a6,a4
   11fa8:	0115c5b3          	xor	a1,a1,a7
   11fac:	fff74713          	xori	a4,a4,-1
   11fb0:	02d59d13          	slli	s10,a1,0x2d
   11fb4:	02459c93          	slli	s9,a1,0x24
   11fb8:	03d7dc13          	srli	s8,a5,0x3d
   11fbc:	0277db93          	srli	s7,a5,0x27
   11fc0:	03f71b13          	slli	s6,a4,0x3f
   11fc4:	03a71a93          	slli	s5,a4,0x3a
   11fc8:	0135de93          	srli	t4,a1,0x13
   11fcc:	01c5d413          	srli	s0,a1,0x1c
   11fd0:	00379e13          	slli	t3,a5,0x3
   11fd4:	01979393          	slli	t2,a5,0x19
   11fd8:	00175313          	srli	t1,a4,0x1
   11fdc:	00675293          	srli	t0,a4,0x6
   11fe0:	03681a13          	slli	s4,a6,0x36
   11fe4:	02f81993          	slli	s3,a6,0x2f
   11fe8:	03989913          	slli	s2,a7,0x39
   11fec:	0298d493          	srli	s1,a7,0x29
   11ff0:	00a85613          	srli	a2,a6,0xa
   11ff4:	01185f93          	srli	t6,a6,0x11
   11ff8:	0078d693          	srli	a3,a7,0x7
   11ffc:	01789f13          	slli	t5,a7,0x17
   12000:	01946433          	or	s0,s0,s9
   12004:	01aeeeb3          	or	t4,t4,s10
   12008:	018e6e33          	or	t3,t3,s8
   1200c:	0173e3b3          	or	t2,t2,s7
   12010:	01636333          	or	t1,t1,s6
   12014:	0152e2b3          	or	t0,t0,s5
   12018:	01466633          	or	a2,a2,s4
   1201c:	013fefb3          	or	t6,t6,s3
   12020:	0126e6b3          	or	a3,a3,s2
   12024:	009f6f33          	or	t5,t5,s1
   12028:	008eceb3          	xor	t4,t4,s0
   1202c:	007e4e33          	xor	t3,t3,t2
   12030:	6466                	c.ldsp	s0,88(sp)
   12032:	00534333          	xor	t1,t1,t0
   12036:	01f64633          	xor	a2,a2,t6
   1203a:	01e6c6b3          	xor	a3,a3,t5
   1203e:	00beceb3          	xor	t4,t4,a1
   12042:	00fe4e33          	xor	t3,t3,a5
   12046:	00e345b3          	xor	a1,t1,a4
   1204a:	0116c7b3          	xor	a5,a3,a7
   1204e:	01064733          	xor	a4,a2,a6
   12052:	01d53023          	sd	t4,0(a0)
   12056:	01c53423          	sd	t3,8(a0)
   1205a:	e90c                	c.sd	a1,16(a0)
   1205c:	ed18                	c.sd	a4,24(a0)
   1205e:	f11c                	c.sd	a5,32(a0)
   12060:	64c6                	c.ldsp	s1,80(sp)
   12062:	6926                	c.ldsp	s2,72(sp)
   12064:	6986                	c.ldsp	s3,64(sp)
   12066:	7a62                	c.ldsp	s4,56(sp)
   12068:	7ac2                	c.ldsp	s5,48(sp)
   1206a:	7b22                	c.ldsp	s6,40(sp)
   1206c:	7b82                	c.ldsp	s7,32(sp)
   1206e:	6c62                	c.ldsp	s8,24(sp)
   12070:	6cc2                	c.ldsp	s9,16(sp)
   12072:	6d22                	c.ldsp	s10,8(sp)
   12074:	6125                	c.addi16sp	sp,96
   12076:	8082                	c.jr	ra

0000000000012078 <crypto_aead_encrypt>:
   12078:	7115                	c.addi16sp	sp,-224
   1207a:	780e                	c.ldsp	a6,224(sp)
   1207c:	e9a2                	c.sdsp	s0,208(sp)
   1207e:	e5a6                	c.sdsp	s1,200(sp)
   12080:	e1ca                	c.sdsp	s2,192(sp)
   12082:	f952                	c.sdsp	s4,176(sp)
   12084:	f556                	c.sdsp	s5,168(sp)
   12086:	f15a                	c.sdsp	s6,160(sp)
   12088:	ed86                	c.sdsp	ra,216(sp)
   1208a:	fd4e                	c.sdsp	s3,184(sp)
   1208c:	ed5e                	c.sdsp	s7,152(sp)
   1208e:	e962                	c.sdsp	s8,144(sp)
   12090:	e566                	c.sdsp	s9,136(sp)
   12092:	e16a                	c.sdsp	s10,128(sp)
   12094:	fcee                	c.sdsp	s11,120(sp)
   12096:	8a36                	c.mv	s4,a3
   12098:	06c1                	c.addi	a3,16
   1209a:	8b32                	c.mv	s6,a2
   1209c:	8abe                	c.mv	s5,a5
   1209e:	e194                	c.sd	a3,0(a1)
   120a0:	842a                	c.mv	s0,a0
   120a2:	84ba                	c.mv	s1,a4
   120a4:	86c2                	c.mv	a3,a6
   120a6:	03800793          	addi	a5,zero,56
   120aa:	4901                	c.li	s2,0
   120ac:	5661                	c.li	a2,-8
   120ae:	0006c703          	lbu	a4,0(a3)
   120b2:	0685                	c.addi	a3,1
   120b4:	00f71733          	sll	a4,a4,a5
   120b8:	37e1                	c.addiw	a5,-8 # 1ff8 <exit-0xe0f0>
   120ba:	00e96933          	or	s2,s2,a4
   120be:	fec798e3          	bne	a5,a2,120ae <crypto_aead_encrypt+0x36>
   120c2:	00880693          	addi	a3,a6,8
   120c6:	03800793          	addi	a5,zero,56
   120ca:	4981                	c.li	s3,0
   120cc:	5661                	c.li	a2,-8
   120ce:	0006c703          	lbu	a4,0(a3)
   120d2:	0685                	c.addi	a3,1
   120d4:	00f71733          	sll	a4,a4,a5
   120d8:	37e1                	c.addiw	a5,-8
   120da:	00e9e9b3          	or	s3,s3,a4
   120de:	fec798e3          	bne	a5,a2,120ce <crypto_aead_encrypt+0x56>
   120e2:	86c6                	c.mv	a3,a7
   120e4:	03800793          	addi	a5,zero,56
   120e8:	4581                	c.li	a1,0
   120ea:	5661                	c.li	a2,-8
   120ec:	0006c703          	lbu	a4,0(a3)
   120f0:	0685                	c.addi	a3,1
   120f2:	00f71733          	sll	a4,a4,a5
   120f6:	37e1                	c.addiw	a5,-8
   120f8:	8dd9                	c.or	a1,a4
   120fa:	fec799e3          	bne	a5,a2,120ec <crypto_aead_encrypt+0x74>
   120fe:	00888693          	addi	a3,a7,8
   12102:	03800793          	addi	a5,zero,56
   12106:	4601                	c.li	a2,0
   12108:	5561                	c.li	a0,-8
   1210a:	0006c703          	lbu	a4,0(a3)
   1210e:	0685                	c.addi	a3,1
   12110:	00f71733          	sll	a4,a4,a5
   12114:	37e1                	c.addiw	a5,-8
   12116:	8e59                	c.or	a2,a4
   12118:	fea799e3          	bne	a5,a0,1210a <crypto_aead_encrypt+0x92>
   1211c:	c02007b7          	lui	a5,0xc0200
   12120:	60378793          	addi	a5,a5,1539 # ffffffffc0200603 <__BSS_END__+0xffffffffc01cecf3>
   12124:	1786                	c.slli	a5,0x21
   12126:	00a8                	c.addi4spn	a0,sp,72
   12128:	e4be                	c.sdsp	a5,72(sp)
   1212a:	e8ca                	c.sdsp	s2,80(sp)
   1212c:	ecce                	c.sdsp	s3,88(sp)
   1212e:	f0ae                	c.sdsp	a1,96(sp)
   12130:	f4b2                	c.sdsp	a2,104(sp)
   12132:	bc4ff0ef          	jal	ra,114f6 <P12>
   12136:	7f06                	c.ldsp	t5,96(sp)
   12138:	78a6                	c.ldsp	a7,104(sp)
   1213a:	01e94f33          	xor	t5,s2,t5
   1213e:	0119c8b3          	xor	a7,s3,a7
   12142:	f0fa                	c.sdsp	t5,96(sp)
   12144:	f4c6                	c.sdsp	a7,104(sp)
   12146:	640a8c63          	beq	s5,zero,1279e <crypto_aead_encrypt+0x726>
   1214a:	479d                	c.li	a5,7
   1214c:	6726                	c.ldsp	a4,72(sp)
   1214e:	5557fae3          	bgeu	a5,s5,12ea2 <crypto_aead_encrypt+0xe2a>
   12152:	ff8a8793          	addi	a5,s5,-8
   12156:	9be1                	c.andi	a5,-8
   12158:	07a1                	c.addi	a5,8
   1215a:	66e6                	c.ldsp	a3,88(sp)
   1215c:	6846                	c.ldsp	a6,80(sp)
   1215e:	00f48fb3          	add	t6,s1,a5
   12162:	e47e                	c.sdsp	t6,8(sp)
   12164:	5ee1                	c.li	t4,-8
   12166:	e84e                	c.sdsp	s3,16(sp)
   12168:	ec4a                	c.sdsp	s2,24(sp)
   1216a:	8e3a                	c.mv	t3,a4
   1216c:	f022                	c.sdsp	s0,32(sp)
   1216e:	f45a                	c.sdsp	s6,40(sp)
   12170:	f852                	c.sdsp	s4,48(sp)
   12172:	fc56                	c.sdsp	s5,56(sp)
   12174:	85a6                	c.mv	a1,s1
   12176:	03800793          	addi	a5,zero,56
   1217a:	4501                	c.li	a0,0
   1217c:	0005c703          	lbu	a4,0(a1)
   12180:	0585                	c.addi	a1,1
   12182:	00f71733          	sll	a4,a4,a5
   12186:	37e1                	c.addiw	a5,-8
   12188:	8d59                	c.or	a0,a4
   1218a:	ffd799e3          	bne	a5,t4,1217c <crypto_aead_encrypt+0x104>
   1218e:	011e4e33          	xor	t3,t3,a7
   12192:	00ae4533          	xor	a0,t3,a0
   12196:	011f48b3          	xor	a7,t5,a7
   1219a:	00d847b3          	xor	a5,a6,a3
   1219e:	ffff4593          	xori	a1,t5,-1
   121a2:	0967c693          	xori	a3,a5,150
   121a6:	fff84613          	xori	a2,a6,-1
   121aa:	0115f5b3          	and	a1,a1,a7
   121ae:	fff54313          	xori	t1,a0,-1
   121b2:	f697c713          	xori	a4,a5,-151
   121b6:	8db5                	c.xor	a1,a3
   121b8:	01037333          	and	t1,t1,a6
   121bc:	01e77733          	and	a4,a4,t5
   121c0:	8e75                	c.and	a2,a3
   121c2:	fff8ce13          	xori	t3,a7,-1
   121c6:	01134333          	xor	t1,t1,a7
   121ca:	8e29                	c.xor	a2,a0
   121cc:	01e5cf33          	xor	t5,a1,t5
   121d0:	01074733          	xor	a4,a4,a6
   121d4:	00ae7e33          	and	t3,t3,a0
   121d8:	8f31                	c.xor	a4,a2
   121da:	01ee4e33          	xor	t3,t3,t5
   121de:	00664633          	xor	a2,a2,t1
   121e2:	fff5c593          	xori	a1,a1,-1
   121e6:	03d75d93          	srli	s11,a4,0x3d
   121ea:	02775d13          	srli	s10,a4,0x27
   121ee:	036e1c93          	slli	s9,t3,0x36
   121f2:	02fe1c13          	slli	s8,t3,0x2f
   121f6:	03931b93          	slli	s7,t1,0x39
   121fa:	01731b13          	slli	s6,t1,0x17
   121fe:	0015da93          	srli	s5,a1,0x1
   12202:	0065da13          	srli	s4,a1,0x6
   12206:	01365993          	srli	s3,a2,0x13
   1220a:	02461913          	slli	s2,a2,0x24
   1220e:	00371893          	slli	a7,a4,0x3
   12212:	01971413          	slli	s0,a4,0x19
   12216:	00ae5813          	srli	a6,t3,0xa
   1221a:	011e5093          	srli	ra,t3,0x11
   1221e:	00735693          	srli	a3,t1,0x7
   12222:	02935393          	srli	t2,t1,0x29
   12226:	03f59793          	slli	a5,a1,0x3f
   1222a:	03a59293          	slli	t0,a1,0x3a
   1222e:	02d61513          	slli	a0,a2,0x2d
   12232:	01c65f13          	srli	t5,a2,0x1c
   12236:	01a46433          	or	s0,s0,s10
   1223a:	0180e0b3          	or	ra,ra,s8
   1223e:	007b63b3          	or	t2,s6,t2
   12242:	005a62b3          	or	t0,s4,t0
   12246:	012f6f33          	or	t5,t5,s2
   1224a:	01b8e8b3          	or	a7,a7,s11
   1224e:	01986833          	or	a6,a6,s9
   12252:	0176e6b3          	or	a3,a3,s7
   12256:	00fae7b3          	or	a5,s5,a5
   1225a:	00a9e533          	or	a0,s3,a0
   1225e:	0088c8b3          	xor	a7,a7,s0
   12262:	00184833          	xor	a6,a6,ra
   12266:	0076c6b3          	xor	a3,a3,t2
   1226a:	0057c7b3          	xor	a5,a5,t0
   1226e:	01e54533          	xor	a0,a0,t5
   12272:	00e8c8b3          	xor	a7,a7,a4
   12276:	01c84833          	xor	a6,a6,t3
   1227a:	0066c6b3          	xor	a3,a3,t1
   1227e:	8fad                	c.xor	a5,a1
   12280:	8d31                	c.xor	a0,a2
   12282:	8d35                	c.xor	a0,a3
   12284:	0117c7b3          	xor	a5,a5,a7
   12288:	00d846b3          	xor	a3,a6,a3
   1228c:	0877c313          	xori	t1,a5,135
   12290:	fff8c613          	xori	a2,a7,-1
   12294:	fff84593          	xori	a1,a6,-1
   12298:	fff54e13          	xori	t3,a0,-1
   1229c:	f787c713          	xori	a4,a5,-136
   122a0:	fff6c793          	xori	a5,a3,-1
   122a4:	8fe9                	c.and	a5,a0
   122a6:	00667633          	and	a2,a2,t1
   122aa:	8df5                	c.and	a1,a3
   122ac:	011e7e33          	and	t3,t3,a7
   122b0:	01077733          	and	a4,a4,a6
   122b4:	00de4e33          	xor	t3,t3,a3
   122b8:	8e29                	c.xor	a2,a0
   122ba:	0065c5b3          	xor	a1,a1,t1
   122be:	01174733          	xor	a4,a4,a7
   122c2:	0107c833          	xor	a6,a5,a6
   122c6:	8f31                	c.xor	a4,a2
   122c8:	00b84833          	xor	a6,a6,a1
   122cc:	01c64633          	xor	a2,a2,t3
   122d0:	fff5c593          	xori	a1,a1,-1
   122d4:	03d75d93          	srli	s11,a4,0x3d
   122d8:	02775d13          	srli	s10,a4,0x27
   122dc:	03681c93          	slli	s9,a6,0x36
   122e0:	02f81c13          	slli	s8,a6,0x2f
   122e4:	039e1b93          	slli	s7,t3,0x39
   122e8:	017e1b13          	slli	s6,t3,0x17
   122ec:	0015da93          	srli	s5,a1,0x1
   122f0:	0065da13          	srli	s4,a1,0x6
   122f4:	01365993          	srli	s3,a2,0x13
   122f8:	02461913          	slli	s2,a2,0x24
   122fc:	00371313          	slli	t1,a4,0x3
   12300:	01971413          	slli	s0,a4,0x19
   12304:	00a85893          	srli	a7,a6,0xa
   12308:	01185093          	srli	ra,a6,0x11
   1230c:	007e5693          	srli	a3,t3,0x7
   12310:	029e5393          	srli	t2,t3,0x29
   12314:	03f59793          	slli	a5,a1,0x3f
   12318:	03a59293          	slli	t0,a1,0x3a
   1231c:	02d61513          	slli	a0,a2,0x2d
   12320:	01c65f13          	srli	t5,a2,0x1c
   12324:	01a46433          	or	s0,s0,s10
   12328:	0180e0b3          	or	ra,ra,s8
   1232c:	007b63b3          	or	t2,s6,t2
   12330:	005a62b3          	or	t0,s4,t0
   12334:	00a9e533          	or	a0,s3,a0
   12338:	01b36333          	or	t1,t1,s11
   1233c:	0198e8b3          	or	a7,a7,s9
   12340:	0176e6b3          	or	a3,a3,s7
   12344:	00fae7b3          	or	a5,s5,a5
   12348:	012f6f33          	or	t5,t5,s2
   1234c:	0076c6b3          	xor	a3,a3,t2
   12350:	01e54f33          	xor	t5,a0,t5
   12354:	00834333          	xor	t1,t1,s0
   12358:	0018c8b3          	xor	a7,a7,ra
   1235c:	0057c7b3          	xor	a5,a5,t0
   12360:	00e34333          	xor	t1,t1,a4
   12364:	0108c8b3          	xor	a7,a7,a6
   12368:	01c6c533          	xor	a0,a3,t3
   1236c:	00cf4833          	xor	a6,t5,a2
   12370:	8fad                	c.xor	a5,a1
   12372:	00a84833          	xor	a6,a6,a0
   12376:	0067c7b3          	xor	a5,a5,t1
   1237a:	00a8c533          	xor	a0,a7,a0
   1237e:	0787cf13          	xori	t5,a5,120
   12382:	fff34e13          	xori	t3,t1,-1
   12386:	fff8c613          	xori	a2,a7,-1
   1238a:	fff84693          	xori	a3,a6,-1
   1238e:	f877c713          	xori	a4,a5,-121
   12392:	fff54593          	xori	a1,a0,-1
   12396:	01ee7e33          	and	t3,t3,t5
   1239a:	8e69                	c.and	a2,a0
   1239c:	0066f6b3          	and	a3,a3,t1
   123a0:	01177733          	and	a4,a4,a7
   123a4:	0105f5b3          	and	a1,a1,a6
   123a8:	8ea9                	c.xor	a3,a0
   123aa:	010e4e33          	xor	t3,t3,a6
   123ae:	01e64633          	xor	a2,a2,t5
   123b2:	00674733          	xor	a4,a4,t1
   123b6:	0115c5b3          	xor	a1,a1,a7
   123ba:	01c74733          	xor	a4,a4,t3
   123be:	8db1                	c.xor	a1,a2
   123c0:	03969f13          	slli	t5,a3,0x39
   123c4:	fff64613          	xori	a2,a2,-1
   123c8:	0296d793          	srli	a5,a3,0x29
   123cc:	0076d093          	srli	ra,a3,0x7
   123d0:	01769893          	slli	a7,a3,0x17
   123d4:	00de4333          	xor	t1,t3,a3
   123d8:	00371b13          	slli	s6,a4,0x3
   123dc:	01971a93          	slli	s5,a4,0x19
   123e0:	02775813          	srli	a6,a4,0x27
   123e4:	00a5da13          	srli	s4,a1,0xa
   123e8:	0115d993          	srli	s3,a1,0x11
   123ec:	01e0e0b3          	or	ra,ra,t5
   123f0:	03f61913          	slli	s2,a2,0x3f
   123f4:	03a61413          	slli	s0,a2,0x3a
   123f8:	03d75393          	srli	t2,a4,0x3d
   123fc:	03659513          	slli	a0,a1,0x36
   12400:	02f59293          	slli	t0,a1,0x2f
   12404:	00f8e8b3          	or	a7,a7,a5
   12408:	00665f13          	srli	t5,a2,0x6
   1240c:	00165793          	srli	a5,a2,0x1
   12410:	0110c8b3          	xor	a7,ra,a7
   12414:	007b63b3          	or	t2,s6,t2
   12418:	010ae0b3          	or	ra,s5,a6
   1241c:	0059e2b3          	or	t0,s3,t0
   12420:	008f6f33          	or	t5,t5,s0
   12424:	00aa6533          	or	a0,s4,a0
   12428:	02d31413          	slli	s0,t1,0x2d
   1242c:	0127e7b3          	or	a5,a5,s2
   12430:	01335813          	srli	a6,t1,0x13
   12434:	0013c0b3          	xor	ra,t2,ra
   12438:	00554533          	xor	a0,a0,t0
   1243c:	011e4e33          	xor	t3,t3,a7
   12440:	01c35393          	srli	t2,t1,0x1c
   12444:	01e7c7b3          	xor	a5,a5,t5
   12448:	00886833          	or	a6,a6,s0
   1244c:	1312                	c.slli	t1,0x24
   1244e:	00e0c2b3          	xor	t0,ra,a4
   12452:	00b54f33          	xor	t5,a0,a1
   12456:	0063e733          	or	a4,t2,t1
   1245a:	0116c6b3          	xor	a3,a3,a7
   1245e:	8fb1                	c.xor	a5,a2
   12460:	01c84833          	xor	a6,a6,t3
   12464:	01e6c533          	xor	a0,a3,t5
   12468:	00e84833          	xor	a6,a6,a4
   1246c:	0057c7b3          	xor	a5,a5,t0
   12470:	0697c313          	xori	t1,a5,105
   12474:	fff2c893          	xori	a7,t0,-1
   12478:	ffff4613          	xori	a2,t5,-1
   1247c:	fff84693          	xori	a3,a6,-1
   12480:	f967c713          	xori	a4,a5,-106
   12484:	fff54593          	xori	a1,a0,-1
   12488:	0068f8b3          	and	a7,a7,t1
   1248c:	8e69                	c.and	a2,a0
   1248e:	0056f6b3          	and	a3,a3,t0
   12492:	01e77733          	and	a4,a4,t5
   12496:	0105f5b3          	and	a1,a1,a6
   1249a:	8ea9                	c.xor	a3,a0
   1249c:	0108c8b3          	xor	a7,a7,a6
   124a0:	00664633          	xor	a2,a2,t1
   124a4:	00574733          	xor	a4,a4,t0
   124a8:	01e5c5b3          	xor	a1,a1,t5
   124ac:	01174733          	xor	a4,a4,a7
   124b0:	8db1                	c.xor	a1,a2
   124b2:	03969f13          	slli	t5,a3,0x39
   124b6:	fff64613          	xori	a2,a2,-1
   124ba:	0296d793          	srli	a5,a3,0x29
   124be:	0076d093          	srli	ra,a3,0x7
   124c2:	01769313          	slli	t1,a3,0x17
   124c6:	00d8ce33          	xor	t3,a7,a3
   124ca:	00371b13          	slli	s6,a4,0x3
   124ce:	01971a93          	slli	s5,a4,0x19
   124d2:	02775813          	srli	a6,a4,0x27
   124d6:	00a5da13          	srli	s4,a1,0xa
   124da:	03659513          	slli	a0,a1,0x36
   124de:	0115d993          	srli	s3,a1,0x11
   124e2:	01e0e0b3          	or	ra,ra,t5
   124e6:	03f61913          	slli	s2,a2,0x3f
   124ea:	00665f13          	srli	t5,a2,0x6
   124ee:	03d75393          	srli	t2,a4,0x3d
   124f2:	02f59293          	slli	t0,a1,0x2f
   124f6:	00f36333          	or	t1,t1,a5
   124fa:	03a61413          	slli	s0,a2,0x3a
   124fe:	00165793          	srli	a5,a2,0x1
   12502:	0060c333          	xor	t1,ra,t1
   12506:	007b63b3          	or	t2,s6,t2
   1250a:	010ae0b3          	or	ra,s5,a6
   1250e:	0059e2b3          	or	t0,s3,t0
   12512:	00aa6833          	or	a6,s4,a0
   12516:	008f6433          	or	s0,t5,s0
   1251a:	0127e7b3          	or	a5,a5,s2
   1251e:	013e5513          	srli	a0,t3,0x13
   12522:	02de1913          	slli	s2,t3,0x2d
   12526:	0013cf33          	xor	t5,t2,ra
   1252a:	0068c8b3          	xor	a7,a7,t1
   1252e:	00584833          	xor	a6,a6,t0
   12532:	8fa1                	c.xor	a5,s0
   12534:	01ce5293          	srli	t0,t3,0x1c
   12538:	01256533          	or	a0,a0,s2
   1253c:	1e12                	c.slli	t3,0x24
   1253e:	00ef4f33          	xor	t5,t5,a4
   12542:	00b84833          	xor	a6,a6,a1
   12546:	01c2e733          	or	a4,t0,t3
   1254a:	0066c6b3          	xor	a3,a3,t1
   1254e:	8fb1                	c.xor	a5,a2
   12550:	01154533          	xor	a0,a0,a7
   12554:	8d39                	c.xor	a0,a4
   12556:	01e7c7b3          	xor	a5,a5,t5
   1255a:	0106c733          	xor	a4,a3,a6
   1255e:	05a7c313          	xori	t1,a5,90
   12562:	ffff4893          	xori	a7,t5,-1
   12566:	fff84613          	xori	a2,a6,-1
   1256a:	fff54693          	xori	a3,a0,-1
   1256e:	fff74593          	xori	a1,a4,-1
   12572:	fa57c793          	xori	a5,a5,-91
   12576:	0068f8b3          	and	a7,a7,t1
   1257a:	8e79                	c.and	a2,a4
   1257c:	01e6f6b3          	and	a3,a3,t5
   12580:	0107f7b3          	and	a5,a5,a6
   12584:	8de9                	c.and	a1,a0
   12586:	8eb9                	c.xor	a3,a4
   12588:	00a8c8b3          	xor	a7,a7,a0
   1258c:	00664633          	xor	a2,a2,t1
   12590:	01e7c7b3          	xor	a5,a5,t5
   12594:	0105c5b3          	xor	a1,a1,a6
   12598:	0117c7b3          	xor	a5,a5,a7
   1259c:	8db1                	c.xor	a1,a2
   1259e:	03969f13          	slli	t5,a3,0x39
   125a2:	fff64613          	xori	a2,a2,-1
   125a6:	0296d713          	srli	a4,a3,0x29
   125aa:	0076d093          	srli	ra,a3,0x7
   125ae:	01769313          	slli	t1,a3,0x17
   125b2:	00d8ce33          	xor	t3,a7,a3
   125b6:	00379b13          	slli	s6,a5,0x3
   125ba:	01979a93          	slli	s5,a5,0x19
   125be:	0277d813          	srli	a6,a5,0x27
   125c2:	00a5da13          	srli	s4,a1,0xa
   125c6:	0115d993          	srli	s3,a1,0x11
   125ca:	01e0e0b3          	or	ra,ra,t5
   125ce:	03f61913          	slli	s2,a2,0x3f
   125d2:	00665f13          	srli	t5,a2,0x6
   125d6:	03d7d393          	srli	t2,a5,0x3d
   125da:	03659513          	slli	a0,a1,0x36
   125de:	02f59293          	slli	t0,a1,0x2f
   125e2:	00e36333          	or	t1,t1,a4
   125e6:	03a61413          	slli	s0,a2,0x3a
   125ea:	00165713          	srli	a4,a2,0x1
   125ee:	0060c333          	xor	t1,ra,t1
   125f2:	007b63b3          	or	t2,s6,t2
   125f6:	010ae0b3          	or	ra,s5,a6
   125fa:	00aa6533          	or	a0,s4,a0
   125fe:	0059e2b3          	or	t0,s3,t0
   12602:	008f6433          	or	s0,t5,s0
   12606:	01276733          	or	a4,a4,s2
   1260a:	013e5f13          	srli	t5,t3,0x13
   1260e:	02de1913          	slli	s2,t3,0x2d
   12612:	0013c0b3          	xor	ra,t2,ra
   12616:	00554833          	xor	a6,a0,t0
   1261a:	8f21                	c.xor	a4,s0
   1261c:	012f6f33          	or	t5,t5,s2
   12620:	0068c8b3          	xor	a7,a7,t1
   12624:	01ce5393          	srli	t2,t3,0x1c
   12628:	1e12                	c.slli	t3,0x24
   1262a:	00f0c2b3          	xor	t0,ra,a5
   1262e:	00b84833          	xor	a6,a6,a1
   12632:	00c747b3          	xor	a5,a4,a2
   12636:	0066c6b3          	xor	a3,a3,t1
   1263a:	01c3e633          	or	a2,t2,t3
   1263e:	011f4733          	xor	a4,t5,a7
   12642:	8f31                	c.xor	a4,a2
   12644:	0106c6b3          	xor	a3,a3,a6
   12648:	0057c7b3          	xor	a5,a5,t0
   1264c:	04b7c613          	xori	a2,a5,75
   12650:	fff2c513          	xori	a0,t0,-1
   12654:	fff84593          	xori	a1,a6,-1
   12658:	fff74313          	xori	t1,a4,-1
   1265c:	fff6c893          	xori	a7,a3,-1
   12660:	fb47c793          	xori	a5,a5,-76
   12664:	8d71                	c.and	a0,a2
   12666:	8df5                	c.and	a1,a3
   12668:	00537333          	and	t1,t1,t0
   1266c:	0107f7b3          	and	a5,a5,a6
   12670:	00e8f8b3          	and	a7,a7,a4
   12674:	00d34333          	xor	t1,t1,a3
   12678:	8d39                	c.xor	a0,a4
   1267a:	8db1                	c.xor	a1,a2
   1267c:	0057c7b3          	xor	a5,a5,t0
   12680:	0108c8b3          	xor	a7,a7,a6
   12684:	00b8c8b3          	xor	a7,a7,a1
   12688:	8fa9                	c.xor	a5,a0
   1268a:	fff5c593          	xori	a1,a1,-1
   1268e:	00654533          	xor	a0,a0,t1
   12692:	00a8da93          	srli	s5,a7,0xa
   12696:	03689613          	slli	a2,a7,0x36
   1269a:	0118da13          	srli	s4,a7,0x11
   1269e:	02f89293          	slli	t0,a7,0x2f
   126a2:	01355e13          	srli	t3,a0,0x13
   126a6:	02d51d93          	slli	s11,a0,0x2d
   126aa:	01c55413          	srli	s0,a0,0x1c
   126ae:	02451d13          	slli	s10,a0,0x24
   126b2:	00379813          	slli	a6,a5,0x3
   126b6:	03d7dc93          	srli	s9,a5,0x3d
   126ba:	01979093          	slli	ra,a5,0x19
   126be:	0277dc13          	srli	s8,a5,0x27
   126c2:	0015d713          	srli	a4,a1,0x1
   126c6:	03f59b93          	slli	s7,a1,0x3f
   126ca:	0065db13          	srli	s6,a1,0x6
   126ce:	03a59393          	slli	t2,a1,0x3a
   126d2:	00735993          	srli	s3,t1,0x7
   126d6:	03931693          	slli	a3,t1,0x39
   126da:	01731f13          	slli	t5,t1,0x17
   126de:	02935913          	srli	s2,t1,0x29
   126e2:	005a62b3          	or	t0,s4,t0
   126e6:	00d9e6b3          	or	a3,s3,a3
   126ea:	012f6f33          	or	t5,t5,s2
   126ee:	01be6e33          	or	t3,t3,s11
   126f2:	01a46433          	or	s0,s0,s10
   126f6:	01986833          	or	a6,a6,s9
   126fa:	0180e0b3          	or	ra,ra,s8
   126fe:	01776733          	or	a4,a4,s7
   12702:	007b63b3          	or	t2,s6,t2
   12706:	00cae633          	or	a2,s5,a2
   1270a:	00564633          	xor	a2,a2,t0
   1270e:	008e4e33          	xor	t3,t3,s0
   12712:	01e6c2b3          	xor	t0,a3,t5
   12716:	00184833          	xor	a6,a6,ra
   1271a:	00774733          	xor	a4,a4,t2
   1271e:	04a1                	c.addi	s1,8
   12720:	01164f33          	xor	t5,a2,a7
   12724:	00ae4e33          	xor	t3,t3,a0
   12728:	00f84833          	xor	a6,a6,a5
   1272c:	00b746b3          	xor	a3,a4,a1
   12730:	0062c8b3          	xor	a7,t0,t1
   12734:	a5f490e3          	bne	s1,t6,12174 <crypto_aead_encrypt+0xfc>
   12738:	7ae2                	c.ldsp	s5,56(sp)
   1273a:	e8c2                	c.sdsp	a6,80(sp)
   1273c:	ecb6                	c.sdsp	a3,88(sp)
   1273e:	007afa93          	andi	s5,s5,7
   12742:	f0fa                	c.sdsp	t5,96(sp)
   12744:	f4c6                	c.sdsp	a7,104(sp)
   12746:	69c2                	c.ldsp	s3,16(sp)
   12748:	6962                	c.ldsp	s2,24(sp)
   1274a:	7402                	c.ldsp	s0,32(sp)
   1274c:	7b22                	c.ldsp	s6,40(sp)
   1274e:	7a42                	c.ldsp	s4,48(sp)
   12750:	8772                	c.mv	a4,t3
   12752:	000a881b          	addiw	a6,s5,0
   12756:	740a8c63          	beq	s5,zero,12eae <crypto_aead_encrypt+0xe36>
   1275a:	68a2                	c.ldsp	a7,8(sp)
   1275c:	03800613          	addi	a2,zero,56
   12760:	4781                	c.li	a5,0
   12762:	4581                	c.li	a1,0
   12764:	00f886b3          	add	a3,a7,a5
   12768:	0006c683          	lbu	a3,0(a3)
   1276c:	0785                	c.addi	a5,1
   1276e:	0007851b          	addiw	a0,a5,0
   12772:	00c696b3          	sll	a3,a3,a2
   12776:	8dd5                	c.or	a1,a3
   12778:	3661                	c.addiw	a2,-8
   1277a:	ff0545e3          	blt	a0,a6,12764 <crypto_aead_encrypt+0x6ec>
   1277e:	8f2d                	c.xor	a4,a1
   12780:	469d                	c.li	a3,7
   12782:	415686b3          	sub	a3,a3,s5
   12786:	0036969b          	slliw	a3,a3,0x3
   1278a:	08000793          	addi	a5,zero,128
   1278e:	00d797b3          	sll	a5,a5,a3
   12792:	8fb9                	c.xor	a5,a4
   12794:	00a8                	c.addi4spn	a0,sp,72
   12796:	e4be                	c.sdsp	a5,72(sp)
   12798:	f70fe0ef          	jal	ra,10f08 <P6>
   1279c:	78a6                	c.ldsp	a7,104(sp)
   1279e:	0018c793          	xori	a5,a7,1
   127a2:	f4be                	c.sdsp	a5,104(sp)
   127a4:	469d                	c.li	a3,7
   127a6:	6526                	c.ldsp	a0,72(sp)
   127a8:	6766                	c.ldsp	a4,88(sp)
   127aa:	6e46                	c.ldsp	t3,80(sp)
   127ac:	6f46ff63          	bgeu	a3,s4,12eaa <crypto_aead_encrypt+0xe32>
   127b0:	ff8a0693          	addi	a3,s4,-8
   127b4:	9ae1                	c.andi	a3,-8
   127b6:	00868493          	addi	s1,a3,8
   127ba:	7f86                	c.ldsp	t6,96(sp)
   127bc:	009406b3          	add	a3,s0,s1
   127c0:	e436                	c.sdsp	a3,8(sp)
   127c2:	8f5a                	c.mv	t5,s6
   127c4:	5661                	c.li	a2,-8
   127c6:	e84e                	c.sdsp	s3,16(sp)
   127c8:	ec4a                	c.sdsp	s2,24(sp)
   127ca:	f026                	c.sdsp	s1,32(sp)
   127cc:	f45a                	c.sdsp	s6,40(sp)
   127ce:	f852                	c.sdsp	s4,48(sp)
   127d0:	82fa                	c.mv	t0,t5
   127d2:	03800813          	addi	a6,zero,56
   127d6:	4e81                	c.li	t4,0
   127d8:	0002c683          	lbu	a3,0(t0)
   127dc:	0285                	c.addi	t0,1
   127de:	010696b3          	sll	a3,a3,a6
   127e2:	3861                	c.addiw	a6,-8
   127e4:	00deeeb3          	or	t4,t4,a3
   127e8:	fec818e3          	bne	a6,a2,127d8 <crypto_aead_encrypt+0x760>
   127ec:	00aeceb3          	xor	t4,t4,a0
   127f0:	8822                	c.mv	a6,s0
   127f2:	03800513          	addi	a0,zero,56
   127f6:	00aed6b3          	srl	a3,t4,a0
   127fa:	00d80023          	sb	a3,0(a6)
   127fe:	3561                	c.addiw	a0,-8
   12800:	0805                	c.addi	a6,1
   12802:	fec51ae3          	bne	a0,a2,127f6 <crypto_aead_encrypt+0x77e>
   12806:	00ffc6b3          	xor	a3,t6,a5
   1280a:	00ee4733          	xor	a4,t3,a4
   1280e:	00fec7b3          	xor	a5,t4,a5
   12812:	ffffc513          	xori	a0,t6,-1
   12816:	09674813          	xori	a6,a4,150
   1281a:	fffe4593          	xori	a1,t3,-1
   1281e:	8d75                	c.and	a0,a3
   12820:	fff7ce93          	xori	t4,a5,-1
   12824:	f6974713          	xori	a4,a4,-151
   12828:	01054533          	xor	a0,a0,a6
   1282c:	01cefeb3          	and	t4,t4,t3
   12830:	01f77733          	and	a4,a4,t6
   12834:	0105f5b3          	and	a1,a1,a6
   12838:	fff6c813          	xori	a6,a3,-1
   1283c:	00deceb3          	xor	t4,t4,a3
   12840:	8dbd                	c.xor	a1,a5
   12842:	00afcfb3          	xor	t6,t6,a0
   12846:	01c74733          	xor	a4,a4,t3
   1284a:	00f87e33          	and	t3,a6,a5
   1284e:	8f2d                	c.xor	a4,a1
   12850:	01fe4e33          	xor	t3,t3,t6
   12854:	01d5c5b3          	xor	a1,a1,t4
   12858:	fff54513          	xori	a0,a0,-1
   1285c:	03d75d93          	srli	s11,a4,0x3d
   12860:	02775d13          	srli	s10,a4,0x27
   12864:	036e1c93          	slli	s9,t3,0x36
   12868:	02fe1c13          	slli	s8,t3,0x2f
   1286c:	039e9b93          	slli	s7,t4,0x39
   12870:	017e9b13          	slli	s6,t4,0x17
   12874:	00155a93          	srli	s5,a0,0x1
   12878:	00655a13          	srli	s4,a0,0x6
   1287c:	0135d993          	srli	s3,a1,0x13
   12880:	02459913          	slli	s2,a1,0x24
   12884:	00371313          	slli	t1,a4,0x3
   12888:	01971493          	slli	s1,a4,0x19
   1288c:	00ae5893          	srli	a7,t3,0xa
   12890:	011e5093          	srli	ra,t3,0x11
   12894:	007ed693          	srli	a3,t4,0x7
   12898:	029ed393          	srli	t2,t4,0x29
   1289c:	03f51793          	slli	a5,a0,0x3f
   128a0:	03a51293          	slli	t0,a0,0x3a
   128a4:	02d59813          	slli	a6,a1,0x2d
   128a8:	01c5df93          	srli	t6,a1,0x1c
   128ac:	01a4e4b3          	or	s1,s1,s10
   128b0:	0180e0b3          	or	ra,ra,s8
   128b4:	007b63b3          	or	t2,s6,t2
   128b8:	005a62b3          	or	t0,s4,t0
   128bc:	012fefb3          	or	t6,t6,s2
   128c0:	01b36333          	or	t1,t1,s11
   128c4:	0198e8b3          	or	a7,a7,s9
   128c8:	0176e6b3          	or	a3,a3,s7
   128cc:	00fae7b3          	or	a5,s5,a5
   128d0:	0109e833          	or	a6,s3,a6
   128d4:	00934333          	xor	t1,t1,s1
   128d8:	0018c8b3          	xor	a7,a7,ra
   128dc:	0076c6b3          	xor	a3,a3,t2
   128e0:	0057c7b3          	xor	a5,a5,t0
   128e4:	01f84833          	xor	a6,a6,t6
   128e8:	00e34333          	xor	t1,t1,a4
   128ec:	01c8c8b3          	xor	a7,a7,t3
   128f0:	01d6c6b3          	xor	a3,a3,t4
   128f4:	8fa9                	c.xor	a5,a0
   128f6:	00b84833          	xor	a6,a6,a1
   128fa:	00d84833          	xor	a6,a6,a3
   128fe:	0067c7b3          	xor	a5,a5,t1
   12902:	00d8c6b3          	xor	a3,a7,a3
   12906:	0877ce13          	xori	t3,a5,135
   1290a:	fff34593          	xori	a1,t1,-1
   1290e:	fff8c513          	xori	a0,a7,-1
   12912:	fff84e93          	xori	t4,a6,-1
   12916:	f787c713          	xori	a4,a5,-136
   1291a:	fff6c793          	xori	a5,a3,-1
   1291e:	0107f7b3          	and	a5,a5,a6
   12922:	01c5f5b3          	and	a1,a1,t3
   12926:	8d75                	c.and	a0,a3
   12928:	006efeb3          	and	t4,t4,t1
   1292c:	01177733          	and	a4,a4,a7
   12930:	00deceb3          	xor	t4,t4,a3
   12934:	0105c5b3          	xor	a1,a1,a6
   12938:	01c54533          	xor	a0,a0,t3
   1293c:	00674733          	xor	a4,a4,t1
   12940:	0117c8b3          	xor	a7,a5,a7
   12944:	8f2d                	c.xor	a4,a1
   12946:	00a8c8b3          	xor	a7,a7,a0
   1294a:	01d5c5b3          	xor	a1,a1,t4
   1294e:	fff54513          	xori	a0,a0,-1
   12952:	03689c93          	slli	s9,a7,0x36
   12956:	02f89c13          	slli	s8,a7,0x2f
   1295a:	039e9b93          	slli	s7,t4,0x39
   1295e:	017e9b13          	slli	s6,t4,0x17
   12962:	0135d993          	srli	s3,a1,0x13
   12966:	02459913          	slli	s2,a1,0x24
   1296a:	00a8d313          	srli	t1,a7,0xa
   1296e:	0118d093          	srli	ra,a7,0x11
   12972:	007ed693          	srli	a3,t4,0x7
   12976:	029ed393          	srli	t2,t4,0x29
   1297a:	02d59813          	slli	a6,a1,0x2d
   1297e:	01c5df93          	srli	t6,a1,0x1c
   12982:	03d75d93          	srli	s11,a4,0x3d
   12986:	02775d13          	srli	s10,a4,0x27
   1298a:	00155a93          	srli	s5,a0,0x1
   1298e:	00655a13          	srli	s4,a0,0x6
   12992:	0180e0b3          	or	ra,ra,s8
   12996:	007b63b3          	or	t2,s6,t2
   1299a:	012fefb3          	or	t6,t6,s2
   1299e:	00371e13          	slli	t3,a4,0x3
   129a2:	01971493          	slli	s1,a4,0x19
   129a6:	03f51793          	slli	a5,a0,0x3f
   129aa:	03a51293          	slli	t0,a0,0x3a
   129ae:	01936333          	or	t1,t1,s9
   129b2:	0176e6b3          	or	a3,a3,s7
   129b6:	0109e833          	or	a6,s3,a6
   129ba:	01a4e4b3          	or	s1,s1,s10
   129be:	005a62b3          	or	t0,s4,t0
   129c2:	01be6e33          	or	t3,t3,s11
   129c6:	00fae7b3          	or	a5,s5,a5
   129ca:	00134333          	xor	t1,t1,ra
   129ce:	0076c6b3          	xor	a3,a3,t2
   129d2:	01f84833          	xor	a6,a6,t6
   129d6:	01134333          	xor	t1,t1,a7
   129da:	01d6c6b3          	xor	a3,a3,t4
   129de:	009e4e33          	xor	t3,t3,s1
   129e2:	0057c7b3          	xor	a5,a5,t0
   129e6:	00b84833          	xor	a6,a6,a1
   129ea:	00ee4e33          	xor	t3,t3,a4
   129ee:	00d84833          	xor	a6,a6,a3
   129f2:	8fa9                	c.xor	a5,a0
   129f4:	00d346b3          	xor	a3,t1,a3
   129f8:	01c7c7b3          	xor	a5,a5,t3
   129fc:	fff34593          	xori	a1,t1,-1
   12a00:	fff6c513          	xori	a0,a3,-1
   12a04:	0787c893          	xori	a7,a5,120
   12a08:	fffe4f93          	xori	t6,t3,-1
   12a0c:	fff84e93          	xori	t4,a6,-1
   12a10:	f877c713          	xori	a4,a5,-121
   12a14:	8df5                	c.and	a1,a3
   12a16:	01057533          	and	a0,a0,a6
   12a1a:	0115c5b3          	xor	a1,a1,a7
   12a1e:	011fffb3          	and	t6,t6,a7
   12a22:	01cefeb3          	and	t4,t4,t3
   12a26:	00677733          	and	a4,a4,t1
   12a2a:	00654533          	xor	a0,a0,t1
   12a2e:	00deceb3          	xor	t4,t4,a3
   12a32:	8d2d                	c.xor	a0,a1
   12a34:	010fcfb3          	xor	t6,t6,a6
   12a38:	01c74733          	xor	a4,a4,t3
   12a3c:	01f74733          	xor	a4,a4,t6
   12a40:	fff5c593          	xori	a1,a1,-1
   12a44:	039e9e13          	slli	t3,t4,0x39
   12a48:	029ed793          	srli	a5,t4,0x29
   12a4c:	00a55a13          	srli	s4,a0,0xa
   12a50:	01155993          	srli	s3,a0,0x11
   12a54:	007ed093          	srli	ra,t4,0x7
   12a58:	017e9693          	slli	a3,t4,0x17
   12a5c:	03651813          	slli	a6,a0,0x36
   12a60:	02f51293          	slli	t0,a0,0x2f
   12a64:	01dfc333          	xor	t1,t6,t4
   12a68:	00371b13          	slli	s6,a4,0x3
   12a6c:	01971a93          	slli	s5,a4,0x19
   12a70:	01c0e0b3          	or	ra,ra,t3
   12a74:	03f59913          	slli	s2,a1,0x3f
   12a78:	0065de13          	srli	t3,a1,0x6
   12a7c:	03a59493          	slli	s1,a1,0x3a
   12a80:	0059e2b3          	or	t0,s3,t0
   12a84:	03d75393          	srli	t2,a4,0x3d
   12a88:	02775893          	srli	a7,a4,0x27
   12a8c:	8edd                	c.or	a3,a5
   12a8e:	010a6833          	or	a6,s4,a6
   12a92:	0015d793          	srli	a5,a1,0x1
   12a96:	00d0c6b3          	xor	a3,ra,a3
   12a9a:	007b63b3          	or	t2,s6,t2
   12a9e:	009e60b3          	or	ra,t3,s1
   12aa2:	011ae8b3          	or	a7,s5,a7
   12aa6:	02d31493          	slli	s1,t1,0x2d
   12aaa:	0127e7b3          	or	a5,a5,s2
   12aae:	01335e13          	srli	t3,t1,0x13
   12ab2:	00584833          	xor	a6,a6,t0
   12ab6:	00a84833          	xor	a6,a6,a0
   12aba:	009e6e33          	or	t3,t3,s1
   12abe:	01f6cfb3          	xor	t6,a3,t6
   12ac2:	01c35293          	srli	t0,t1,0x1c
   12ac6:	0113c8b3          	xor	a7,t2,a7
   12aca:	0017c7b3          	xor	a5,a5,ra
   12ace:	1312                	c.slli	t1,0x24
   12ad0:	01d6c6b3          	xor	a3,a3,t4
   12ad4:	00e8c8b3          	xor	a7,a7,a4
   12ad8:	0106c6b3          	xor	a3,a3,a6
   12adc:	01fe4733          	xor	a4,t3,t6
   12ae0:	8fad                	c.xor	a5,a1
   12ae2:	0062e5b3          	or	a1,t0,t1
   12ae6:	00b74eb3          	xor	t4,a4,a1
   12aea:	0117c7b3          	xor	a5,a5,a7
   12aee:	fff84593          	xori	a1,a6,-1
   12af2:	fff6c513          	xori	a0,a3,-1
   12af6:	0697cf93          	xori	t6,a5,105
   12afa:	fff8ce13          	xori	t3,a7,-1
   12afe:	fffec313          	xori	t1,t4,-1
   12b02:	f967c713          	xori	a4,a5,-106
   12b06:	8df5                	c.and	a1,a3
   12b08:	01d57533          	and	a0,a0,t4
   12b0c:	01f5c5b3          	xor	a1,a1,t6
   12b10:	01fe7e33          	and	t3,t3,t6
   12b14:	01137333          	and	t1,t1,a7
   12b18:	01077733          	and	a4,a4,a6
   12b1c:	01054533          	xor	a0,a0,a6
   12b20:	00d34333          	xor	t1,t1,a3
   12b24:	8d2d                	c.xor	a0,a1
   12b26:	01de4e33          	xor	t3,t3,t4
   12b2a:	01174733          	xor	a4,a4,a7
   12b2e:	01c74733          	xor	a4,a4,t3
   12b32:	fff5c593          	xori	a1,a1,-1
   12b36:	03931f93          	slli	t6,t1,0x39
   12b3a:	02935793          	srli	a5,t1,0x29
   12b3e:	00a55a13          	srli	s4,a0,0xa
   12b42:	01155993          	srli	s3,a0,0x11
   12b46:	00735093          	srli	ra,t1,0x7
   12b4a:	01731693          	slli	a3,t1,0x17
   12b4e:	03651813          	slli	a6,a0,0x36
   12b52:	02f51293          	slli	t0,a0,0x2f
   12b56:	006e4eb3          	xor	t4,t3,t1
   12b5a:	00371b13          	slli	s6,a4,0x3
   12b5e:	01971a93          	slli	s5,a4,0x19
   12b62:	01f0e0b3          	or	ra,ra,t6
   12b66:	03f59913          	slli	s2,a1,0x3f
   12b6a:	0065df93          	srli	t6,a1,0x6
   12b6e:	03a59493          	slli	s1,a1,0x3a
   12b72:	0059e2b3          	or	t0,s3,t0
   12b76:	03d75393          	srli	t2,a4,0x3d
   12b7a:	02775893          	srli	a7,a4,0x27
   12b7e:	8edd                	c.or	a3,a5
   12b80:	010a6833          	or	a6,s4,a6
   12b84:	0015d793          	srli	a5,a1,0x1
   12b88:	00d0c6b3          	xor	a3,ra,a3
   12b8c:	007b63b3          	or	t2,s6,t2
   12b90:	009fe0b3          	or	ra,t6,s1
   12b94:	011ae8b3          	or	a7,s5,a7
   12b98:	02de9493          	slli	s1,t4,0x2d
   12b9c:	0127e7b3          	or	a5,a5,s2
   12ba0:	013edf93          	srli	t6,t4,0x13
   12ba4:	00584833          	xor	a6,a6,t0
   12ba8:	00a84833          	xor	a6,a6,a0
   12bac:	009fefb3          	or	t6,t6,s1
   12bb0:	01c6ce33          	xor	t3,a3,t3
   12bb4:	01ced293          	srli	t0,t4,0x1c
   12bb8:	0113c8b3          	xor	a7,t2,a7
   12bbc:	0017c7b3          	xor	a5,a5,ra
   12bc0:	1e92                	c.slli	t4,0x24
   12bc2:	0066c6b3          	xor	a3,a3,t1
   12bc6:	00e8c8b3          	xor	a7,a7,a4
   12bca:	0106c6b3          	xor	a3,a3,a6
   12bce:	01cfc733          	xor	a4,t6,t3
   12bd2:	8fad                	c.xor	a5,a1
   12bd4:	01d2e5b3          	or	a1,t0,t4
   12bd8:	8f2d                	c.xor	a4,a1
   12bda:	0117c7b3          	xor	a5,a5,a7
   12bde:	fff84593          	xori	a1,a6,-1
   12be2:	fff6c513          	xori	a0,a3,-1
   12be6:	05a7ce93          	xori	t4,a5,90
   12bea:	fff8ce13          	xori	t3,a7,-1
   12bee:	fff74313          	xori	t1,a4,-1
   12bf2:	8df5                	c.and	a1,a3
   12bf4:	8d79                	c.and	a0,a4
   12bf6:	fa57c793          	xori	a5,a5,-91
   12bfa:	01d5c5b3          	xor	a1,a1,t4
   12bfe:	01de7e33          	and	t3,t3,t4
   12c02:	01137333          	and	t1,t1,a7
   12c06:	0107f7b3          	and	a5,a5,a6
   12c0a:	01054533          	xor	a0,a0,a6
   12c0e:	00d34333          	xor	t1,t1,a3
   12c12:	8d2d                	c.xor	a0,a1
   12c14:	00ee4e33          	xor	t3,t3,a4
   12c18:	0117c7b3          	xor	a5,a5,a7
   12c1c:	01c7c7b3          	xor	a5,a5,t3
   12c20:	fff5c593          	xori	a1,a1,-1
   12c24:	03931f93          	slli	t6,t1,0x39
   12c28:	02935713          	srli	a4,t1,0x29
   12c2c:	00a55a13          	srli	s4,a0,0xa
   12c30:	01155993          	srli	s3,a0,0x11
   12c34:	00735093          	srli	ra,t1,0x7
   12c38:	01731693          	slli	a3,t1,0x17
   12c3c:	03651813          	slli	a6,a0,0x36
   12c40:	02f51293          	slli	t0,a0,0x2f
   12c44:	006e4eb3          	xor	t4,t3,t1
   12c48:	00379b13          	slli	s6,a5,0x3
   12c4c:	01979a93          	slli	s5,a5,0x19
   12c50:	01f0e0b3          	or	ra,ra,t6
   12c54:	03f59913          	slli	s2,a1,0x3f
   12c58:	0065df93          	srli	t6,a1,0x6
   12c5c:	03a59493          	slli	s1,a1,0x3a
   12c60:	010a6833          	or	a6,s4,a6
   12c64:	03d7d393          	srli	t2,a5,0x3d
   12c68:	0277d893          	srli	a7,a5,0x27
   12c6c:	8ed9                	c.or	a3,a4
   12c6e:	0059e2b3          	or	t0,s3,t0
   12c72:	0015d713          	srli	a4,a1,0x1
   12c76:	00d0c6b3          	xor	a3,ra,a3
   12c7a:	007b63b3          	or	t2,s6,t2
   12c7e:	009fe0b3          	or	ra,t6,s1
   12c82:	011ae8b3          	or	a7,s5,a7
   12c86:	02de9493          	slli	s1,t4,0x2d
   12c8a:	01276733          	or	a4,a4,s2
   12c8e:	013edf93          	srli	t6,t4,0x13
   12c92:	005842b3          	xor	t0,a6,t0
   12c96:	00a2c2b3          	xor	t0,t0,a0
   12c9a:	00174733          	xor	a4,a4,ra
   12c9e:	009fefb3          	or	t6,t6,s1
   12ca2:	01c6ce33          	xor	t3,a3,t3
   12ca6:	01ced093          	srli	ra,t4,0x1c
   12caa:	0113c8b3          	xor	a7,t2,a7
   12cae:	1e92                	c.slli	t4,0x24
   12cb0:	0066c6b3          	xor	a3,a3,t1
   12cb4:	00f8c3b3          	xor	t2,a7,a5
   12cb8:	0056c6b3          	xor	a3,a3,t0
   12cbc:	00b747b3          	xor	a5,a4,a1
   12cc0:	01d0e5b3          	or	a1,ra,t4
   12cc4:	01cfc733          	xor	a4,t6,t3
   12cc8:	8f2d                	c.xor	a4,a1
   12cca:	0077c7b3          	xor	a5,a5,t2
   12cce:	fff2c813          	xori	a6,t0,-1
   12cd2:	fff6c893          	xori	a7,a3,-1
   12cd6:	04b7c593          	xori	a1,a5,75
   12cda:	00d87833          	and	a6,a6,a3
   12cde:	00e8f8b3          	and	a7,a7,a4
   12ce2:	00b84833          	xor	a6,a6,a1
   12ce6:	fff74e93          	xori	t4,a4,-1
   12cea:	0058c8b3          	xor	a7,a7,t0
   12cee:	0108c8b3          	xor	a7,a7,a6
   12cf2:	fff3c513          	xori	a0,t2,-1
   12cf6:	007efeb3          	and	t4,t4,t2
   12cfa:	fb47c793          	xori	a5,a5,-76
   12cfe:	00deceb3          	xor	t4,t4,a3
   12d02:	8d6d                	c.and	a0,a1
   12d04:	0057f7b3          	and	a5,a5,t0
   12d08:	00a8da93          	srli	s5,a7,0xa
   12d0c:	03689693          	slli	a3,a7,0x36
   12d10:	0118da13          	srli	s4,a7,0x11
   12d14:	02f89293          	slli	t0,a7,0x2f
   12d18:	8d39                	c.xor	a0,a4
   12d1a:	0077c7b3          	xor	a5,a5,t2
   12d1e:	007ed993          	srli	s3,t4,0x7
   12d22:	039e9593          	slli	a1,t4,0x39
   12d26:	017e9f93          	slli	t6,t4,0x17
   12d2a:	029ed913          	srli	s2,t4,0x29
   12d2e:	00dae6b3          	or	a3,s5,a3
   12d32:	005a62b3          	or	t0,s4,t0
   12d36:	8fa9                	c.xor	a5,a0
   12d38:	fff84813          	xori	a6,a6,-1
   12d3c:	01d54533          	xor	a0,a0,t4
   12d40:	012fefb3          	or	t6,t6,s2
   12d44:	0056c6b3          	xor	a3,a3,t0
   12d48:	00b9e5b3          	or	a1,s3,a1
   12d4c:	01355e13          	srli	t3,a0,0x13
   12d50:	02d51d93          	slli	s11,a0,0x2d
   12d54:	01c55493          	srli	s1,a0,0x1c
   12d58:	02451d13          	slli	s10,a0,0x24
   12d5c:	00379313          	slli	t1,a5,0x3
   12d60:	03d7dc93          	srli	s9,a5,0x3d
   12d64:	01979093          	slli	ra,a5,0x19
   12d68:	0277dc13          	srli	s8,a5,0x27
   12d6c:	01f5c5b3          	xor	a1,a1,t6
   12d70:	00185713          	srli	a4,a6,0x1
   12d74:	03f81b93          	slli	s7,a6,0x3f
   12d78:	00685b13          	srli	s6,a6,0x6
   12d7c:	03a81393          	slli	t2,a6,0x3a
   12d80:	0116cfb3          	xor	t6,a3,a7
   12d84:	66a2                	c.ldsp	a3,8(sp)
   12d86:	01be6e33          	or	t3,t3,s11
   12d8a:	01a4e4b3          	or	s1,s1,s10
   12d8e:	01936333          	or	t1,t1,s9
   12d92:	0180e0b3          	or	ra,ra,s8
   12d96:	01776733          	or	a4,a4,s7
   12d9a:	007b63b3          	or	t2,s6,t2
   12d9e:	009e4e33          	xor	t3,t3,s1
   12da2:	00134333          	xor	t1,t1,ra
   12da6:	00774733          	xor	a4,a4,t2
   12daa:	0421                	c.addi	s0,8
   12dac:	00ae4533          	xor	a0,t3,a0
   12db0:	01074733          	xor	a4,a4,a6
   12db4:	00f34e33          	xor	t3,t1,a5
   12db8:	0f21                	c.addi	t5,8
   12dba:	01d5c7b3          	xor	a5,a1,t4
   12dbe:	a0d419e3          	bne	s0,a3,127d0 <crypto_aead_encrypt+0x758>
   12dc2:	7482                	c.ldsp	s1,32(sp)
   12dc4:	7b22                	c.ldsp	s6,40(sp)
   12dc6:	7a42                	c.ldsp	s4,48(sp)
   12dc8:	69c2                	c.ldsp	s3,16(sp)
   12dca:	6962                	c.ldsp	s2,24(sp)
   12dcc:	9b26                	c.add	s6,s1
   12dce:	007a7a13          	andi	s4,s4,7
   12dd2:	f0fe                	c.sdsp	t6,96(sp)
   12dd4:	f4be                	c.sdsp	a5,104(sp)
   12dd6:	000a079b          	addiw	a5,s4,0
   12dda:	cf9d                	c.beqz	a5,12e18 <crypto_aead_encrypt+0xda0>
   12ddc:	4140063b          	subw	a2,zero,s4
   12de0:	0036161b          	slliw	a2,a2,0x3
   12de4:	0386061b          	addiw	a2,a2,56
   12de8:	03800793          	addi	a5,zero,56
   12dec:	4581                	c.li	a1,0
   12dee:	000b4683          	lbu	a3,0(s6)
   12df2:	0b05                	c.addi	s6,1
   12df4:	00f696b3          	sll	a3,a3,a5
   12df8:	37e1                	c.addiw	a5,-8
   12dfa:	8dd5                	c.or	a1,a3
   12dfc:	fec799e3          	bne	a5,a2,12dee <crypto_aead_encrypt+0xd76>
   12e00:	66a2                	c.ldsp	a3,8(sp)
   12e02:	8d2d                	c.xor	a0,a1
   12e04:	03800793          	addi	a5,zero,56
   12e08:	00f555b3          	srl	a1,a0,a5
   12e0c:	00b68023          	sb	a1,0(a3)
   12e10:	37e1                	c.addiw	a5,-8
   12e12:	0685                	c.addi	a3,1
   12e14:	fec79ae3          	bne	a5,a2,12e08 <crypto_aead_encrypt+0xd90>
   12e18:	469d                	c.li	a3,7
   12e1a:	414686b3          	sub	a3,a3,s4
   12e1e:	0036969b          	slliw	a3,a3,0x3
   12e22:	08000793          	addi	a5,zero,128
   12e26:	00d797b3          	sll	a5,a5,a3
   12e2a:	66a2                	c.ldsp	a3,8(sp)
   12e2c:	8fa9                	c.xor	a5,a0
   12e2e:	00e9c733          	xor	a4,s3,a4
   12e32:	01c94e33          	xor	t3,s2,t3
   12e36:	00a8                	c.addi4spn	a0,sp,72
   12e38:	9a36                	c.add	s4,a3
   12e3a:	e4be                	c.sdsp	a5,72(sp)
   12e3c:	ecba                	c.sdsp	a4,88(sp)
   12e3e:	e8f2                	c.sdsp	t3,80(sp)
   12e40:	eb6fe0ef          	jal	ra,114f6 <P12>
   12e44:	7786                	c.ldsp	a5,96(sp)
   12e46:	8752                	c.mv	a4,s4
   12e48:	5661                	c.li	a2,-8
   12e4a:	00f94933          	xor	s2,s2,a5
   12e4e:	77a6                	c.ldsp	a5,104(sp)
   12e50:	00f9c9b3          	xor	s3,s3,a5
   12e54:	03800793          	addi	a5,zero,56
   12e58:	00f956b3          	srl	a3,s2,a5
   12e5c:	00d70023          	sb	a3,0(a4)
   12e60:	37e1                	c.addiw	a5,-8
   12e62:	0705                	c.addi	a4,1
   12e64:	fec79ae3          	bne	a5,a2,12e58 <crypto_aead_encrypt+0xde0>
   12e68:	008a0793          	addi	a5,s4,8
   12e6c:	03800713          	addi	a4,zero,56
   12e70:	5661                	c.li	a2,-8
   12e72:	00e9d6b3          	srl	a3,s3,a4
   12e76:	00d78023          	sb	a3,0(a5)
   12e7a:	3761                	c.addiw	a4,-8
   12e7c:	0785                	c.addi	a5,1
   12e7e:	fec71ae3          	bne	a4,a2,12e72 <crypto_aead_encrypt+0xdfa>
   12e82:	60ee                	c.ldsp	ra,216(sp)
   12e84:	644e                	c.ldsp	s0,208(sp)
   12e86:	64ae                	c.ldsp	s1,200(sp)
   12e88:	690e                	c.ldsp	s2,192(sp)
   12e8a:	79ea                	c.ldsp	s3,184(sp)
   12e8c:	7a4a                	c.ldsp	s4,176(sp)
   12e8e:	7aaa                	c.ldsp	s5,168(sp)
   12e90:	7b0a                	c.ldsp	s6,160(sp)
   12e92:	6bea                	c.ldsp	s7,152(sp)
   12e94:	6c4a                	c.ldsp	s8,144(sp)
   12e96:	6caa                	c.ldsp	s9,136(sp)
   12e98:	6d0a                	c.ldsp	s10,128(sp)
   12e9a:	7de6                	c.ldsp	s11,120(sp)
   12e9c:	4501                	c.li	a0,0
   12e9e:	612d                	c.addi16sp	sp,224
   12ea0:	8082                	c.jr	ra
   12ea2:	000a881b          	addiw	a6,s5,0
   12ea6:	e426                	c.sdsp	s1,8(sp)
   12ea8:	b84d                	c.j	1275a <crypto_aead_encrypt+0x6e2>
   12eaa:	e422                	c.sdsp	s0,8(sp)
   12eac:	b72d                	c.j	12dd6 <crypto_aead_encrypt+0xd5e>
   12eae:	4a81                	c.li	s5,0
   12eb0:	b8c1                	c.j	12780 <crypto_aead_encrypt+0x708>

0000000000012eb2 <crypto_aead_decrypt>:
   12eb2:	7151                	c.addi16sp	sp,-240
   12eb4:	f95a                	c.sdsp	s6,176(sp)
   12eb6:	f586                	c.sdsp	ra,232(sp)
   12eb8:	8b3a                	c.mv	s6,a4
   12eba:	f1a2                	c.sdsp	s0,224(sp)
   12ebc:	eda6                	c.sdsp	s1,216(sp)
   12ebe:	e9ca                	c.sdsp	s2,208(sp)
   12ec0:	e5ce                	c.sdsp	s3,200(sp)
   12ec2:	e1d2                	c.sdsp	s4,192(sp)
   12ec4:	fd56                	c.sdsp	s5,184(sp)
   12ec6:	f55e                	c.sdsp	s7,168(sp)
   12ec8:	f162                	c.sdsp	s8,160(sp)
   12eca:	ed66                	c.sdsp	s9,152(sp)
   12ecc:	e96a                	c.sdsp	s10,144(sp)
   12ece:	e56e                	c.sdsp	s11,136(sp)
   12ed0:	473d                	c.li	a4,15
   12ed2:	764e                	c.ldsp	a2,240(sp)
   12ed4:	67677ee3          	bgeu	a4,s6,13d50 <crypto_aead_decrypt+0xe9e>
   12ed8:	ff0b0a13          	addi	s4,s6,-16
   12edc:	8bb6                	c.mv	s7,a3
   12ede:	84be                	c.mv	s1,a5
   12ee0:	0145b023          	sd	s4,0(a1)
   12ee4:	842a                	c.mv	s0,a0
   12ee6:	8ac2                	c.mv	s5,a6
   12ee8:	86b2                	c.mv	a3,a2
   12eea:	03800793          	addi	a5,zero,56
   12eee:	4901                	c.li	s2,0
   12ef0:	55e1                	c.li	a1,-8
   12ef2:	0006c703          	lbu	a4,0(a3)
   12ef6:	0685                	c.addi	a3,1
   12ef8:	00f71733          	sll	a4,a4,a5
   12efc:	37e1                	c.addiw	a5,-8
   12efe:	00e96933          	or	s2,s2,a4
   12f02:	feb798e3          	bne	a5,a1,12ef2 <crypto_aead_decrypt+0x40>
   12f06:	00860693          	addi	a3,a2,8
   12f0a:	03800793          	addi	a5,zero,56
   12f0e:	4981                	c.li	s3,0
   12f10:	5661                	c.li	a2,-8
   12f12:	0006c703          	lbu	a4,0(a3)
   12f16:	0685                	c.addi	a3,1
   12f18:	00f71733          	sll	a4,a4,a5
   12f1c:	37e1                	c.addiw	a5,-8
   12f1e:	00e9e9b3          	or	s3,s3,a4
   12f22:	fec798e3          	bne	a5,a2,12f12 <crypto_aead_decrypt+0x60>
   12f26:	86c6                	c.mv	a3,a7
   12f28:	03800793          	addi	a5,zero,56
   12f2c:	4601                	c.li	a2,0
   12f2e:	55e1                	c.li	a1,-8
   12f30:	0006c703          	lbu	a4,0(a3)
   12f34:	0685                	c.addi	a3,1
   12f36:	00f71733          	sll	a4,a4,a5
   12f3a:	37e1                	c.addiw	a5,-8
   12f3c:	8e59                	c.or	a2,a4
   12f3e:	feb799e3          	bne	a5,a1,12f30 <crypto_aead_decrypt+0x7e>
   12f42:	08a1                	c.addi	a7,8
   12f44:	03800793          	addi	a5,zero,56
   12f48:	4681                	c.li	a3,0
   12f4a:	55e1                	c.li	a1,-8
   12f4c:	0008c703          	lbu	a4,0(a7)
   12f50:	0885                	c.addi	a7,1
   12f52:	00f71733          	sll	a4,a4,a5
   12f56:	37e1                	c.addiw	a5,-8
   12f58:	8ed9                	c.or	a3,a4
   12f5a:	feb799e3          	bne	a5,a1,12f4c <crypto_aead_decrypt+0x9a>
   12f5e:	c02007b7          	lui	a5,0xc0200
   12f62:	60378793          	addi	a5,a5,1539 # ffffffffc0200603 <__BSS_END__+0xffffffffc01cecf3>
   12f66:	1786                	c.slli	a5,0x21
   12f68:	08a8                	c.addi4spn	a0,sp,88
   12f6a:	ecbe                	c.sdsp	a5,88(sp)
   12f6c:	fcb6                	c.sdsp	a3,120(sp)
   12f6e:	f0ca                	c.sdsp	s2,96(sp)
   12f70:	f4ce                	c.sdsp	s3,104(sp)
   12f72:	f8b2                	c.sdsp	a2,112(sp)
   12f74:	d82fe0ef          	jal	ra,114f6 <P12>
   12f78:	78c6                	c.ldsp	a7,112(sp)
   12f7a:	77e6                	c.ldsp	a5,120(sp)
   12f7c:	011948b3          	xor	a7,s2,a7
   12f80:	00f9c6b3          	xor	a3,s3,a5
   12f84:	f8c6                	c.sdsp	a7,112(sp)
   12f86:	fcb6                	c.sdsp	a3,120(sp)
   12f88:	660a8263          	beq	s5,zero,135ec <crypto_aead_decrypt+0x73a>
   12f8c:	471d                	c.li	a4,7
   12f8e:	67e6                	c.ldsp	a5,88(sp)
   12f90:	5b577ce3          	bgeu	a4,s5,13d48 <crypto_aead_decrypt+0xe96>
   12f94:	ff8a8713          	addi	a4,s5,-8
   12f98:	9b61                	c.andi	a4,-8
   12f9a:	0721                	c.addi	a4,8
   12f9c:	7826                	c.ldsp	a6,104(sp)
   12f9e:	7f06                	c.ldsp	t5,96(sp)
   12fa0:	00e48fb3          	add	t6,s1,a4
   12fa4:	e07e                	c.sdsp	t6,0(sp)
   12fa6:	5ee1                	c.li	t4,-8
   12fa8:	e44e                	c.sdsp	s3,8(sp)
   12faa:	e84a                	c.sdsp	s2,16(sp)
   12fac:	8e3e                	c.mv	t3,a5
   12fae:	ec52                	c.sdsp	s4,24(sp)
   12fb0:	f022                	c.sdsp	s0,32(sp)
   12fb2:	f45e                	c.sdsp	s7,40(sp)
   12fb4:	f85a                	c.sdsp	s6,48(sp)
   12fb6:	fc56                	c.sdsp	s5,56(sp)
   12fb8:	85a6                	c.mv	a1,s1
   12fba:	03800713          	addi	a4,zero,56
   12fbe:	4501                	c.li	a0,0
   12fc0:	0005c783          	lbu	a5,0(a1)
   12fc4:	0585                	c.addi	a1,1
   12fc6:	00e797b3          	sll	a5,a5,a4
   12fca:	3761                	c.addiw	a4,-8
   12fcc:	8d5d                	c.or	a0,a5
   12fce:	ffd719e3          	bne	a4,t4,12fc0 <crypto_aead_decrypt+0x10e>
   12fd2:	00de4e33          	xor	t3,t3,a3
   12fd6:	00ae4533          	xor	a0,t3,a0
   12fda:	00d8c6b3          	xor	a3,a7,a3
   12fde:	010f47b3          	xor	a5,t5,a6
   12fe2:	fff8c593          	xori	a1,a7,-1
   12fe6:	0967c813          	xori	a6,a5,150
   12fea:	ffff4613          	xori	a2,t5,-1
   12fee:	8df5                	c.and	a1,a3
   12ff0:	fff54313          	xori	t1,a0,-1
   12ff4:	f697c713          	xori	a4,a5,-151
   12ff8:	0105c5b3          	xor	a1,a1,a6
   12ffc:	01e37333          	and	t1,t1,t5
   13000:	01177733          	and	a4,a4,a7
   13004:	01067633          	and	a2,a2,a6
   13008:	fff6ce13          	xori	t3,a3,-1
   1300c:	00d34333          	xor	t1,t1,a3
   13010:	8e29                	c.xor	a2,a0
   13012:	0115c8b3          	xor	a7,a1,a7
   13016:	01e74733          	xor	a4,a4,t5
   1301a:	00ae7e33          	and	t3,t3,a0
   1301e:	8f31                	c.xor	a4,a2
   13020:	011e4e33          	xor	t3,t3,a7
   13024:	00664633          	xor	a2,a2,t1
   13028:	fff5c593          	xori	a1,a1,-1
   1302c:	03d75d93          	srli	s11,a4,0x3d
   13030:	02775d13          	srli	s10,a4,0x27
   13034:	036e1c93          	slli	s9,t3,0x36
   13038:	02fe1c13          	slli	s8,t3,0x2f
   1303c:	03931b93          	slli	s7,t1,0x39
   13040:	02935b13          	srli	s6,t1,0x29
   13044:	0015da93          	srli	s5,a1,0x1
   13048:	0065da13          	srli	s4,a1,0x6
   1304c:	01365993          	srli	s3,a2,0x13
   13050:	01c65913          	srli	s2,a2,0x1c
   13054:	00371893          	slli	a7,a4,0x3
   13058:	01971413          	slli	s0,a4,0x19
   1305c:	00ae5813          	srli	a6,t3,0xa
   13060:	011e5093          	srli	ra,t3,0x11
   13064:	00735693          	srli	a3,t1,0x7
   13068:	01731393          	slli	t2,t1,0x17
   1306c:	03f59793          	slli	a5,a1,0x3f
   13070:	03a59293          	slli	t0,a1,0x3a
   13074:	02d61513          	slli	a0,a2,0x2d
   13078:	02461f13          	slli	t5,a2,0x24
   1307c:	01a46433          	or	s0,s0,s10
   13080:	0180e0b3          	or	ra,ra,s8
   13084:	0163e3b3          	or	t2,t2,s6
   13088:	005a62b3          	or	t0,s4,t0
   1308c:	01e96f33          	or	t5,s2,t5
   13090:	01b8e8b3          	or	a7,a7,s11
   13094:	01986833          	or	a6,a6,s9
   13098:	0176e6b3          	or	a3,a3,s7
   1309c:	00fae7b3          	or	a5,s5,a5
   130a0:	00a9e533          	or	a0,s3,a0
   130a4:	0088c8b3          	xor	a7,a7,s0
   130a8:	00184833          	xor	a6,a6,ra
   130ac:	0076c6b3          	xor	a3,a3,t2
   130b0:	0057c7b3          	xor	a5,a5,t0
   130b4:	01e54533          	xor	a0,a0,t5
   130b8:	00e8c8b3          	xor	a7,a7,a4
   130bc:	01c84833          	xor	a6,a6,t3
   130c0:	0066c6b3          	xor	a3,a3,t1
   130c4:	8fad                	c.xor	a5,a1
   130c6:	8d31                	c.xor	a0,a2
   130c8:	8d35                	c.xor	a0,a3
   130ca:	0117c7b3          	xor	a5,a5,a7
   130ce:	00d846b3          	xor	a3,a6,a3
   130d2:	0877c313          	xori	t1,a5,135
   130d6:	fff8c613          	xori	a2,a7,-1
   130da:	fff84593          	xori	a1,a6,-1
   130de:	fff54e13          	xori	t3,a0,-1
   130e2:	f787c713          	xori	a4,a5,-136
   130e6:	fff6c793          	xori	a5,a3,-1
   130ea:	8fe9                	c.and	a5,a0
   130ec:	00667633          	and	a2,a2,t1
   130f0:	8df5                	c.and	a1,a3
   130f2:	011e7e33          	and	t3,t3,a7
   130f6:	01077733          	and	a4,a4,a6
   130fa:	00de4e33          	xor	t3,t3,a3
   130fe:	8e29                	c.xor	a2,a0
   13100:	0065c5b3          	xor	a1,a1,t1
   13104:	01174733          	xor	a4,a4,a7
   13108:	0107c833          	xor	a6,a5,a6
   1310c:	8f31                	c.xor	a4,a2
   1310e:	00b84833          	xor	a6,a6,a1
   13112:	01c64633          	xor	a2,a2,t3
   13116:	fff5c593          	xori	a1,a1,-1
   1311a:	03d75d93          	srli	s11,a4,0x3d
   1311e:	02775d13          	srli	s10,a4,0x27
   13122:	03681c93          	slli	s9,a6,0x36
   13126:	02f81c13          	slli	s8,a6,0x2f
   1312a:	039e1b93          	slli	s7,t3,0x39
   1312e:	029e5b13          	srli	s6,t3,0x29
   13132:	0015da93          	srli	s5,a1,0x1
   13136:	0065da13          	srli	s4,a1,0x6
   1313a:	01365993          	srli	s3,a2,0x13
   1313e:	01c65913          	srli	s2,a2,0x1c
   13142:	00371313          	slli	t1,a4,0x3
   13146:	01971413          	slli	s0,a4,0x19
   1314a:	00a85893          	srli	a7,a6,0xa
   1314e:	01185093          	srli	ra,a6,0x11
   13152:	007e5693          	srli	a3,t3,0x7
   13156:	017e1393          	slli	t2,t3,0x17
   1315a:	03f59793          	slli	a5,a1,0x3f
   1315e:	03a59293          	slli	t0,a1,0x3a
   13162:	02d61513          	slli	a0,a2,0x2d
   13166:	02461f13          	slli	t5,a2,0x24
   1316a:	01a46433          	or	s0,s0,s10
   1316e:	0180e0b3          	or	ra,ra,s8
   13172:	0163e3b3          	or	t2,t2,s6
   13176:	005a62b3          	or	t0,s4,t0
   1317a:	00a9e533          	or	a0,s3,a0
   1317e:	01b36333          	or	t1,t1,s11
   13182:	0198e8b3          	or	a7,a7,s9
   13186:	0176e6b3          	or	a3,a3,s7
   1318a:	00fae7b3          	or	a5,s5,a5
   1318e:	01e96f33          	or	t5,s2,t5
   13192:	0076c6b3          	xor	a3,a3,t2
   13196:	01e54f33          	xor	t5,a0,t5
   1319a:	00834333          	xor	t1,t1,s0
   1319e:	0018c8b3          	xor	a7,a7,ra
   131a2:	0057c7b3          	xor	a5,a5,t0
   131a6:	00e34333          	xor	t1,t1,a4
   131aa:	0108c8b3          	xor	a7,a7,a6
   131ae:	01c6c533          	xor	a0,a3,t3
   131b2:	00cf4833          	xor	a6,t5,a2
   131b6:	8fad                	c.xor	a5,a1
   131b8:	00a84833          	xor	a6,a6,a0
   131bc:	0067c7b3          	xor	a5,a5,t1
   131c0:	00a8c533          	xor	a0,a7,a0
   131c4:	0787cf13          	xori	t5,a5,120
   131c8:	fff34e13          	xori	t3,t1,-1
   131cc:	fff8c613          	xori	a2,a7,-1
   131d0:	fff84693          	xori	a3,a6,-1
   131d4:	f877c713          	xori	a4,a5,-121
   131d8:	fff54593          	xori	a1,a0,-1
   131dc:	01ee7e33          	and	t3,t3,t5
   131e0:	8e69                	c.and	a2,a0
   131e2:	0066f6b3          	and	a3,a3,t1
   131e6:	01177733          	and	a4,a4,a7
   131ea:	0105f5b3          	and	a1,a1,a6
   131ee:	8ea9                	c.xor	a3,a0
   131f0:	010e4e33          	xor	t3,t3,a6
   131f4:	01e64633          	xor	a2,a2,t5
   131f8:	00674733          	xor	a4,a4,t1
   131fc:	0115c5b3          	xor	a1,a1,a7
   13200:	01c74733          	xor	a4,a4,t3
   13204:	8db1                	c.xor	a1,a2
   13206:	03969f13          	slli	t5,a3,0x39
   1320a:	fff64613          	xori	a2,a2,-1
   1320e:	0296d793          	srli	a5,a3,0x29
   13212:	0076d893          	srli	a7,a3,0x7
   13216:	01769093          	slli	ra,a3,0x17
   1321a:	00de4333          	xor	t1,t3,a3
   1321e:	00371b13          	slli	s6,a4,0x3
   13222:	01971a93          	slli	s5,a4,0x19
   13226:	02775813          	srli	a6,a4,0x27
   1322a:	03659293          	slli	t0,a1,0x36
   1322e:	0115d993          	srli	s3,a1,0x11
   13232:	00f0e0b3          	or	ra,ra,a5
   13236:	00165913          	srli	s2,a2,0x1
   1323a:	03d75393          	srli	t2,a4,0x3d
   1323e:	00a5da13          	srli	s4,a1,0xa
   13242:	02f59513          	slli	a0,a1,0x2f
   13246:	01e8e8b3          	or	a7,a7,t5
   1324a:	03f61793          	slli	a5,a2,0x3f
   1324e:	00665f13          	srli	t5,a2,0x6
   13252:	03a61413          	slli	s0,a2,0x3a
   13256:	0018c8b3          	xor	a7,a7,ra
   1325a:	007b63b3          	or	t2,s6,t2
   1325e:	010ae0b3          	or	ra,s5,a6
   13262:	005a6a33          	or	s4,s4,t0
   13266:	008f6433          	or	s0,t5,s0
   1326a:	00a9e533          	or	a0,s3,a0
   1326e:	02d31f13          	slli	t5,t1,0x2d
   13272:	00f967b3          	or	a5,s2,a5
   13276:	01335813          	srli	a6,t1,0x13
   1327a:	0013c2b3          	xor	t0,t2,ra
   1327e:	00aa4533          	xor	a0,s4,a0
   13282:	011e4e33          	xor	t3,t3,a7
   13286:	01c35393          	srli	t2,t1,0x1c
   1328a:	8fa1                	c.xor	a5,s0
   1328c:	01e86833          	or	a6,a6,t5
   13290:	1312                	c.slli	t1,0x24
   13292:	00e2c2b3          	xor	t0,t0,a4
   13296:	00b54f33          	xor	t5,a0,a1
   1329a:	0063e733          	or	a4,t2,t1
   1329e:	0116c6b3          	xor	a3,a3,a7
   132a2:	8fb1                	c.xor	a5,a2
   132a4:	01c84833          	xor	a6,a6,t3
   132a8:	01e6c533          	xor	a0,a3,t5
   132ac:	00e84833          	xor	a6,a6,a4
   132b0:	0057c7b3          	xor	a5,a5,t0
   132b4:	0697c313          	xori	t1,a5,105
   132b8:	fff2c893          	xori	a7,t0,-1
   132bc:	ffff4613          	xori	a2,t5,-1
   132c0:	fff84693          	xori	a3,a6,-1
   132c4:	f967c713          	xori	a4,a5,-106
   132c8:	fff54593          	xori	a1,a0,-1
   132cc:	0068f8b3          	and	a7,a7,t1
   132d0:	8e69                	c.and	a2,a0
   132d2:	0056f6b3          	and	a3,a3,t0
   132d6:	01e77733          	and	a4,a4,t5
   132da:	0105f5b3          	and	a1,a1,a6
   132de:	8ea9                	c.xor	a3,a0
   132e0:	0108c8b3          	xor	a7,a7,a6
   132e4:	00664633          	xor	a2,a2,t1
   132e8:	00574733          	xor	a4,a4,t0
   132ec:	01e5c5b3          	xor	a1,a1,t5
   132f0:	01174733          	xor	a4,a4,a7
   132f4:	8db1                	c.xor	a1,a2
   132f6:	03969f13          	slli	t5,a3,0x39
   132fa:	fff64613          	xori	a2,a2,-1
   132fe:	0296d793          	srli	a5,a3,0x29
   13302:	0076d313          	srli	t1,a3,0x7
   13306:	01769093          	slli	ra,a3,0x17
   1330a:	00d8ce33          	xor	t3,a7,a3
   1330e:	00371b13          	slli	s6,a4,0x3
   13312:	01971a93          	slli	s5,a4,0x19
   13316:	02775813          	srli	a6,a4,0x27
   1331a:	03659293          	slli	t0,a1,0x36
   1331e:	0115d993          	srli	s3,a1,0x11
   13322:	00f0e0b3          	or	ra,ra,a5
   13326:	00165913          	srli	s2,a2,0x1
   1332a:	03d75393          	srli	t2,a4,0x3d
   1332e:	00a5da13          	srli	s4,a1,0xa
   13332:	02f59513          	slli	a0,a1,0x2f
   13336:	01e36333          	or	t1,t1,t5
   1333a:	03f61793          	slli	a5,a2,0x3f
   1333e:	00665f13          	srli	t5,a2,0x6
   13342:	03a61413          	slli	s0,a2,0x3a
   13346:	00134333          	xor	t1,t1,ra
   1334a:	007b63b3          	or	t2,s6,t2
   1334e:	010ae0b3          	or	ra,s5,a6
   13352:	005a6a33          	or	s4,s4,t0
   13356:	008f6433          	or	s0,t5,s0
   1335a:	00a9e533          	or	a0,s3,a0
   1335e:	02de1f13          	slli	t5,t3,0x2d
   13362:	00f967b3          	or	a5,s2,a5
   13366:	013e5813          	srli	a6,t3,0x13
   1336a:	0013c2b3          	xor	t0,t2,ra
   1336e:	00aa4533          	xor	a0,s4,a0
   13372:	0068c8b3          	xor	a7,a7,t1
   13376:	01ce5393          	srli	t2,t3,0x1c
   1337a:	8fa1                	c.xor	a5,s0
   1337c:	01e86833          	or	a6,a6,t5
   13380:	1e12                	c.slli	t3,0x24
   13382:	00e2c2b3          	xor	t0,t0,a4
   13386:	00b54f33          	xor	t5,a0,a1
   1338a:	01c3e733          	or	a4,t2,t3
   1338e:	0066c6b3          	xor	a3,a3,t1
   13392:	8fb1                	c.xor	a5,a2
   13394:	01184833          	xor	a6,a6,a7
   13398:	00e84833          	xor	a6,a6,a4
   1339c:	0057c7b3          	xor	a5,a5,t0
   133a0:	01e6c733          	xor	a4,a3,t5
   133a4:	05a7c893          	xori	a7,a5,90
   133a8:	fff2c613          	xori	a2,t0,-1
   133ac:	ffff4593          	xori	a1,t5,-1
   133b0:	fff84693          	xori	a3,a6,-1
   133b4:	fff74513          	xori	a0,a4,-1
   133b8:	fa57c793          	xori	a5,a5,-91
   133bc:	01167633          	and	a2,a2,a7
   133c0:	8df9                	c.and	a1,a4
   133c2:	0056f6b3          	and	a3,a3,t0
   133c6:	01e7f7b3          	and	a5,a5,t5
   133ca:	01057533          	and	a0,a0,a6
   133ce:	8eb9                	c.xor	a3,a4
   133d0:	01064633          	xor	a2,a2,a6
   133d4:	0115c5b3          	xor	a1,a1,a7
   133d8:	0057c7b3          	xor	a5,a5,t0
   133dc:	01e54533          	xor	a0,a0,t5
   133e0:	8fb1                	c.xor	a5,a2
   133e2:	8d2d                	c.xor	a0,a1
   133e4:	03969f13          	slli	t5,a3,0x39
   133e8:	fff5c593          	xori	a1,a1,-1
   133ec:	0296d713          	srli	a4,a3,0x29
   133f0:	0076d313          	srli	t1,a3,0x7
   133f4:	01769093          	slli	ra,a3,0x17
   133f8:	00d64e33          	xor	t3,a2,a3
   133fc:	00379b13          	slli	s6,a5,0x3
   13400:	01979a93          	slli	s5,a5,0x19
   13404:	00a55a13          	srli	s4,a0,0xa
   13408:	01155993          	srli	s3,a0,0x11
   1340c:	00e0e0b3          	or	ra,ra,a4
   13410:	0015d913          	srli	s2,a1,0x1
   13414:	03a59413          	slli	s0,a1,0x3a
   13418:	03d7d393          	srli	t2,a5,0x3d
   1341c:	0277d893          	srli	a7,a5,0x27
   13420:	03651293          	slli	t0,a0,0x36
   13424:	02f51813          	slli	a6,a0,0x2f
   13428:	01e36333          	or	t1,t1,t5
   1342c:	03f59713          	slli	a4,a1,0x3f
   13430:	0065df13          	srli	t5,a1,0x6
   13434:	00134333          	xor	t1,t1,ra
   13438:	007b63b3          	or	t2,s6,t2
   1343c:	005a62b3          	or	t0,s4,t0
   13440:	008f6f33          	or	t5,t5,s0
   13444:	013e5093          	srli	ra,t3,0x13
   13448:	02de1413          	slli	s0,t3,0x2d
   1344c:	011ae8b3          	or	a7,s5,a7
   13450:	0109e833          	or	a6,s3,a6
   13454:	00e96733          	or	a4,s2,a4
   13458:	0113c8b3          	xor	a7,t2,a7
   1345c:	01e74733          	xor	a4,a4,t5
   13460:	0080e3b3          	or	t2,ra,s0
   13464:	0102c833          	xor	a6,t0,a6
   13468:	00664633          	xor	a2,a2,t1
   1346c:	01ce5293          	srli	t0,t3,0x1c
   13470:	1e12                	c.slli	t3,0x24
   13472:	00f8cf33          	xor	t5,a7,a5
   13476:	00a84833          	xor	a6,a6,a0
   1347a:	00b747b3          	xor	a5,a4,a1
   1347e:	00764633          	xor	a2,a2,t2
   13482:	01c2e733          	or	a4,t0,t3
   13486:	0066c6b3          	xor	a3,a3,t1
   1348a:	8e39                	c.xor	a2,a4
   1348c:	0106c6b3          	xor	a3,a3,a6
   13490:	01e7c7b3          	xor	a5,a5,t5
   13494:	04b7ce13          	xori	t3,a5,75
   13498:	ffff4513          	xori	a0,t5,-1
   1349c:	fff84593          	xori	a1,a6,-1
   134a0:	fff64313          	xori	t1,a2,-1
   134a4:	fb47c713          	xori	a4,a5,-76
   134a8:	fff6c893          	xori	a7,a3,-1
   134ac:	01c57533          	and	a0,a0,t3
   134b0:	8df5                	c.and	a1,a3
   134b2:	01e37333          	and	t1,t1,t5
   134b6:	01077733          	and	a4,a4,a6
   134ba:	00c8f8b3          	and	a7,a7,a2
   134be:	00d34333          	xor	t1,t1,a3
   134c2:	8d31                	c.xor	a0,a2
   134c4:	01c5c5b3          	xor	a1,a1,t3
   134c8:	01e74733          	xor	a4,a4,t5
   134cc:	0108c8b3          	xor	a7,a7,a6
   134d0:	8f29                	c.xor	a4,a0
   134d2:	00b8c8b3          	xor	a7,a7,a1
   134d6:	00654533          	xor	a0,a0,t1
   134da:	fff5c593          	xori	a1,a1,-1
   134de:	00a8da93          	srli	s5,a7,0xa
   134e2:	03689613          	slli	a2,a7,0x36
   134e6:	0118da13          	srli	s4,a7,0x11
   134ea:	02f89293          	slli	t0,a7,0x2f
   134ee:	01355e13          	srli	t3,a0,0x13
   134f2:	02d51d93          	slli	s11,a0,0x2d
   134f6:	01c55413          	srli	s0,a0,0x1c
   134fa:	02451d13          	slli	s10,a0,0x24
   134fe:	00371813          	slli	a6,a4,0x3
   13502:	03d75c93          	srli	s9,a4,0x3d
   13506:	01971093          	slli	ra,a4,0x19
   1350a:	02775c13          	srli	s8,a4,0x27
   1350e:	0015d793          	srli	a5,a1,0x1
   13512:	03f59b93          	slli	s7,a1,0x3f
   13516:	0065d393          	srli	t2,a1,0x6
   1351a:	03a59b13          	slli	s6,a1,0x3a
   1351e:	00735993          	srli	s3,t1,0x7
   13522:	03931693          	slli	a3,t1,0x39
   13526:	01731913          	slli	s2,t1,0x17
   1352a:	02935f13          	srli	t5,t1,0x29
   1352e:	01e96f33          	or	t5,s2,t5
   13532:	01be6e33          	or	t3,t3,s11
   13536:	01a46433          	or	s0,s0,s10
   1353a:	01986833          	or	a6,a6,s9
   1353e:	0180e0b3          	or	ra,ra,s8
   13542:	0177e7b3          	or	a5,a5,s7
   13546:	0163e3b3          	or	t2,t2,s6
   1354a:	00cae633          	or	a2,s5,a2
   1354e:	005a62b3          	or	t0,s4,t0
   13552:	00d9e6b3          	or	a3,s3,a3
   13556:	00184833          	xor	a6,a6,ra
   1355a:	01e6c6b3          	xor	a3,a3,t5
   1355e:	008e4e33          	xor	t3,t3,s0
   13562:	0077c7b3          	xor	a5,a5,t2
   13566:	00564633          	xor	a2,a2,t0
   1356a:	04a1                	c.addi	s1,8
   1356c:	00e84f33          	xor	t5,a6,a4
   13570:	00ae4e33          	xor	t3,t3,a0
   13574:	00b7c833          	xor	a6,a5,a1
   13578:	011648b3          	xor	a7,a2,a7
   1357c:	0066c6b3          	xor	a3,a3,t1
   13580:	a3f49ce3          	bne	s1,t6,12fb8 <crypto_aead_decrypt+0x106>
   13584:	7ae2                	c.ldsp	s5,56(sp)
   13586:	f4c2                	c.sdsp	a6,104(sp)
   13588:	f0fa                	c.sdsp	t5,96(sp)
   1358a:	007afa93          	andi	s5,s5,7
   1358e:	f8c6                	c.sdsp	a7,112(sp)
   13590:	fcb6                	c.sdsp	a3,120(sp)
   13592:	69a2                	c.ldsp	s3,8(sp)
   13594:	6942                	c.ldsp	s2,16(sp)
   13596:	6a62                	c.ldsp	s4,24(sp)
   13598:	7402                	c.ldsp	s0,32(sp)
   1359a:	7ba2                	c.ldsp	s7,40(sp)
   1359c:	7b42                	c.ldsp	s6,48(sp)
   1359e:	87f2                	c.mv	a5,t3
   135a0:	000a881b          	addiw	a6,s5,0
   135a4:	7a0a8063          	beq	s5,zero,13d44 <crypto_aead_decrypt+0xe92>
   135a8:	6882                	c.ldsp	a7,0(sp)
   135aa:	03800613          	addi	a2,zero,56
   135ae:	4701                	c.li	a4,0
   135b0:	4581                	c.li	a1,0
   135b2:	00e886b3          	add	a3,a7,a4
   135b6:	0006c683          	lbu	a3,0(a3)
   135ba:	0705                	c.addi	a4,1
   135bc:	0007051b          	addiw	a0,a4,0
   135c0:	00c696b3          	sll	a3,a3,a2
   135c4:	8dd5                	c.or	a1,a3
   135c6:	3661                	c.addiw	a2,-8
   135c8:	ff0545e3          	blt	a0,a6,135b2 <crypto_aead_decrypt+0x700>
   135cc:	8fad                	c.xor	a5,a1
   135ce:	469d                	c.li	a3,7
   135d0:	415686b3          	sub	a3,a3,s5
   135d4:	0036969b          	slliw	a3,a3,0x3
   135d8:	08000713          	addi	a4,zero,128
   135dc:	00d71733          	sll	a4,a4,a3
   135e0:	8fb9                	c.xor	a5,a4
   135e2:	08a8                	c.addi4spn	a0,sp,88
   135e4:	ecbe                	c.sdsp	a5,88(sp)
   135e6:	923fd0ef          	jal	ra,10f08 <P6>
   135ea:	76e6                	c.ldsp	a3,120(sp)
   135ec:	0016c793          	xori	a5,a3,1
   135f0:	fcbe                	c.sdsp	a5,120(sp)
   135f2:	469d                	c.li	a3,7
   135f4:	6666                	c.ldsp	a2,88(sp)
   135f6:	7726                	c.ldsp	a4,104(sp)
   135f8:	7506                	c.ldsp	a0,96(sp)
   135fa:	7546f363          	bgeu	a3,s4,13d40 <crypto_aead_decrypt+0xe8e>
   135fe:	fe8b0a93          	addi	s5,s6,-24
   13602:	003ad093          	srli	ra,s5,0x3
   13606:	00108693          	addi	a3,ra,1 # 10787 <__do_global_dtors_aux+0x1f>
   1360a:	00369a13          	slli	s4,a3,0x3
   1360e:	7fc6                	c.ldsp	t6,112(sp)
   13610:	014406b3          	add	a3,s0,s4
   13614:	e036                	c.sdsp	a3,0(sp)
   13616:	8f5e                	c.mv	t5,s7
   13618:	55e1                	c.li	a1,-8
   1361a:	e44e                	c.sdsp	s3,8(sp)
   1361c:	e84a                	c.sdsp	s2,16(sp)
   1361e:	ec56                	c.sdsp	s5,24(sp)
   13620:	f006                	c.sdsp	ra,32(sp)
   13622:	f452                	c.sdsp	s4,40(sp)
   13624:	f85e                	c.sdsp	s7,48(sp)
   13626:	8e7a                	c.mv	t3,t5
   13628:	03800813          	addi	a6,zero,56
   1362c:	4281                	c.li	t0,0
   1362e:	000e4683          	lbu	a3,0(t3)
   13632:	0e05                	c.addi	t3,1
   13634:	010696b3          	sll	a3,a3,a6
   13638:	3861                	c.addiw	a6,-8
   1363a:	00d2e2b3          	or	t0,t0,a3
   1363e:	feb818e3          	bne	a6,a1,1362e <crypto_aead_decrypt+0x77c>
   13642:	00c2c6b3          	xor	a3,t0,a2
   13646:	88a2                	c.mv	a7,s0
   13648:	03800813          	addi	a6,zero,56
   1364c:	0106d633          	srl	a2,a3,a6
   13650:	00c88023          	sb	a2,0(a7)
   13654:	3861                	c.addiw	a6,-8
   13656:	0885                	c.addi	a7,1
   13658:	feb81ae3          	bne	a6,a1,1364c <crypto_aead_decrypt+0x79a>
   1365c:	00ffc6b3          	xor	a3,t6,a5
   13660:	00f2c2b3          	xor	t0,t0,a5
   13664:	8f29                	c.xor	a4,a0
   13666:	ffffc793          	xori	a5,t6,-1
   1366a:	09674813          	xori	a6,a4,150
   1366e:	fff54613          	xori	a2,a0,-1
   13672:	8ff5                	c.and	a5,a3
   13674:	fff2ce13          	xori	t3,t0,-1
   13678:	f6974713          	xori	a4,a4,-151
   1367c:	0107c7b3          	xor	a5,a5,a6
   13680:	00ae7e33          	and	t3,t3,a0
   13684:	01f77733          	and	a4,a4,t6
   13688:	01067633          	and	a2,a2,a6
   1368c:	fff6ce93          	xori	t4,a3,-1
   13690:	00de4e33          	xor	t3,t3,a3
   13694:	00564633          	xor	a2,a2,t0
   13698:	00ffcfb3          	xor	t6,t6,a5
   1369c:	8f29                	c.xor	a4,a0
   1369e:	005efeb3          	and	t4,t4,t0
   136a2:	8f31                	c.xor	a4,a2
   136a4:	01feceb3          	xor	t4,t4,t6
   136a8:	01c64633          	xor	a2,a2,t3
   136ac:	fff7c513          	xori	a0,a5,-1
   136b0:	03d75d93          	srli	s11,a4,0x3d
   136b4:	02775d13          	srli	s10,a4,0x27
   136b8:	036e9c93          	slli	s9,t4,0x36
   136bc:	02fe9c13          	slli	s8,t4,0x2f
   136c0:	039e1b93          	slli	s7,t3,0x39
   136c4:	029e5b13          	srli	s6,t3,0x29
   136c8:	00155a93          	srli	s5,a0,0x1
   136cc:	00655a13          	srli	s4,a0,0x6
   136d0:	01365993          	srli	s3,a2,0x13
   136d4:	01c65913          	srli	s2,a2,0x1c
   136d8:	00371313          	slli	t1,a4,0x3
   136dc:	01971493          	slli	s1,a4,0x19
   136e0:	00aed893          	srli	a7,t4,0xa
   136e4:	011ed093          	srli	ra,t4,0x11
   136e8:	007e5693          	srli	a3,t3,0x7
   136ec:	017e1393          	slli	t2,t3,0x17
   136f0:	03f51793          	slli	a5,a0,0x3f
   136f4:	03a51293          	slli	t0,a0,0x3a
   136f8:	02d61813          	slli	a6,a2,0x2d
   136fc:	02461f93          	slli	t6,a2,0x24
   13700:	01a4e4b3          	or	s1,s1,s10
   13704:	0180e0b3          	or	ra,ra,s8
   13708:	0163e3b3          	or	t2,t2,s6
   1370c:	005a62b3          	or	t0,s4,t0
   13710:	01f96fb3          	or	t6,s2,t6
   13714:	01b36333          	or	t1,t1,s11
   13718:	0198e8b3          	or	a7,a7,s9
   1371c:	0176e6b3          	or	a3,a3,s7
   13720:	00fae7b3          	or	a5,s5,a5
   13724:	0109e833          	or	a6,s3,a6
   13728:	00934333          	xor	t1,t1,s1
   1372c:	0018c8b3          	xor	a7,a7,ra
   13730:	0076c6b3          	xor	a3,a3,t2
   13734:	0057c7b3          	xor	a5,a5,t0
   13738:	01f84833          	xor	a6,a6,t6
   1373c:	00e34333          	xor	t1,t1,a4
   13740:	01d8c8b3          	xor	a7,a7,t4
   13744:	01c6c6b3          	xor	a3,a3,t3
   13748:	8fa9                	c.xor	a5,a0
   1374a:	00c84833          	xor	a6,a6,a2
   1374e:	00d84833          	xor	a6,a6,a3
   13752:	0067c7b3          	xor	a5,a5,t1
   13756:	00d8c6b3          	xor	a3,a7,a3
   1375a:	0877ce13          	xori	t3,a5,135
   1375e:	fff34613          	xori	a2,t1,-1
   13762:	fff8c513          	xori	a0,a7,-1
   13766:	fff84e93          	xori	t4,a6,-1
   1376a:	f787c713          	xori	a4,a5,-136
   1376e:	fff6c793          	xori	a5,a3,-1
   13772:	0107f7b3          	and	a5,a5,a6
   13776:	01c67633          	and	a2,a2,t3
   1377a:	8d75                	c.and	a0,a3
   1377c:	006efeb3          	and	t4,t4,t1
   13780:	01177733          	and	a4,a4,a7
   13784:	00deceb3          	xor	t4,t4,a3
   13788:	01064633          	xor	a2,a2,a6
   1378c:	01c54533          	xor	a0,a0,t3
   13790:	00674733          	xor	a4,a4,t1
   13794:	0117c8b3          	xor	a7,a5,a7
   13798:	8f31                	c.xor	a4,a2
   1379a:	00a8c8b3          	xor	a7,a7,a0
   1379e:	01d64633          	xor	a2,a2,t4
   137a2:	fff54513          	xori	a0,a0,-1
   137a6:	03d75d93          	srli	s11,a4,0x3d
   137aa:	02775d13          	srli	s10,a4,0x27
   137ae:	03689c93          	slli	s9,a7,0x36
   137b2:	02f89c13          	slli	s8,a7,0x2f
   137b6:	039e9b93          	slli	s7,t4,0x39
   137ba:	029edb13          	srli	s6,t4,0x29
   137be:	00155a93          	srli	s5,a0,0x1
   137c2:	00655a13          	srli	s4,a0,0x6
   137c6:	01365993          	srli	s3,a2,0x13
   137ca:	01c65913          	srli	s2,a2,0x1c
   137ce:	00371e13          	slli	t3,a4,0x3
   137d2:	01971493          	slli	s1,a4,0x19
   137d6:	00a8d313          	srli	t1,a7,0xa
   137da:	0118d093          	srli	ra,a7,0x11
   137de:	007ed693          	srli	a3,t4,0x7
   137e2:	017e9393          	slli	t2,t4,0x17
   137e6:	03f51793          	slli	a5,a0,0x3f
   137ea:	03a51293          	slli	t0,a0,0x3a
   137ee:	02d61813          	slli	a6,a2,0x2d
   137f2:	02461f93          	slli	t6,a2,0x24
   137f6:	01a4e4b3          	or	s1,s1,s10
   137fa:	0180e0b3          	or	ra,ra,s8
   137fe:	0163e3b3          	or	t2,t2,s6
   13802:	005a62b3          	or	t0,s4,t0
   13806:	01f96fb3          	or	t6,s2,t6
   1380a:	01be6e33          	or	t3,t3,s11
   1380e:	01936333          	or	t1,t1,s9
   13812:	0176e6b3          	or	a3,a3,s7
   13816:	00fae7b3          	or	a5,s5,a5
   1381a:	0109e833          	or	a6,s3,a6
   1381e:	009e4e33          	xor	t3,t3,s1
   13822:	00134333          	xor	t1,t1,ra
   13826:	0076c6b3          	xor	a3,a3,t2
   1382a:	0057c7b3          	xor	a5,a5,t0
   1382e:	01f84833          	xor	a6,a6,t6
   13832:	00ee4e33          	xor	t3,t3,a4
   13836:	01134333          	xor	t1,t1,a7
   1383a:	01d6c6b3          	xor	a3,a3,t4
   1383e:	8fa9                	c.xor	a5,a0
   13840:	00c84833          	xor	a6,a6,a2
   13844:	00d84833          	xor	a6,a6,a3
   13848:	01c7c7b3          	xor	a5,a5,t3
   1384c:	00d346b3          	xor	a3,t1,a3
   13850:	0787c893          	xori	a7,a5,120
   13854:	fffe4f93          	xori	t6,t3,-1
   13858:	fff34613          	xori	a2,t1,-1
   1385c:	fff84e93          	xori	t4,a6,-1
   13860:	f877c713          	xori	a4,a5,-121
   13864:	fff6c513          	xori	a0,a3,-1
   13868:	011fffb3          	and	t6,t6,a7
   1386c:	8e75                	c.and	a2,a3
   1386e:	01cefeb3          	and	t4,t4,t3
   13872:	00677733          	and	a4,a4,t1
   13876:	01057533          	and	a0,a0,a6
   1387a:	00deceb3          	xor	t4,t4,a3
   1387e:	010fcfb3          	xor	t6,t6,a6
   13882:	01164633          	xor	a2,a2,a7
   13886:	01c74733          	xor	a4,a4,t3
   1388a:	00654533          	xor	a0,a0,t1
   1388e:	01f74733          	xor	a4,a4,t6
   13892:	8d31                	c.xor	a0,a2
   13894:	039e9e13          	slli	t3,t4,0x39
   13898:	fff64613          	xori	a2,a2,-1
   1389c:	029ed793          	srli	a5,t4,0x29
   138a0:	007ed693          	srli	a3,t4,0x7
   138a4:	017e9093          	slli	ra,t4,0x17
   138a8:	01dfc333          	xor	t1,t6,t4
   138ac:	00371b13          	slli	s6,a4,0x3
   138b0:	01971a93          	slli	s5,a4,0x19
   138b4:	00a55a13          	srli	s4,a0,0xa
   138b8:	01155993          	srli	s3,a0,0x11
   138bc:	00f0e0b3          	or	ra,ra,a5
   138c0:	00165913          	srli	s2,a2,0x1
   138c4:	03a61493          	slli	s1,a2,0x3a
   138c8:	03d75393          	srli	t2,a4,0x3d
   138cc:	02775893          	srli	a7,a4,0x27
   138d0:	03651293          	slli	t0,a0,0x36
   138d4:	02f51813          	slli	a6,a0,0x2f
   138d8:	01c6e6b3          	or	a3,a3,t3
   138dc:	03f61793          	slli	a5,a2,0x3f
   138e0:	00665e13          	srli	t3,a2,0x6
   138e4:	0016c6b3          	xor	a3,a3,ra
   138e8:	007b63b3          	or	t2,s6,t2
   138ec:	009e60b3          	or	ra,t3,s1
   138f0:	005a62b3          	or	t0,s4,t0
   138f4:	02d31493          	slli	s1,t1,0x2d
   138f8:	011ae8b3          	or	a7,s5,a7
   138fc:	0109e833          	or	a6,s3,a6
   13900:	00f967b3          	or	a5,s2,a5
   13904:	01335e13          	srli	t3,t1,0x13
   13908:	009e6e33          	or	t3,t3,s1
   1390c:	01f6cfb3          	xor	t6,a3,t6
   13910:	0113c8b3          	xor	a7,t2,a7
   13914:	0102c833          	xor	a6,t0,a6
   13918:	0017c7b3          	xor	a5,a5,ra
   1391c:	01c35293          	srli	t0,t1,0x1c
   13920:	1312                	c.slli	t1,0x24
   13922:	00e8c8b3          	xor	a7,a7,a4
   13926:	00a84833          	xor	a6,a6,a0
   1392a:	01fe4733          	xor	a4,t3,t6
   1392e:	8fb1                	c.xor	a5,a2
   13930:	01d6c6b3          	xor	a3,a3,t4
   13934:	0062e633          	or	a2,t0,t1
   13938:	00c74eb3          	xor	t4,a4,a2
   1393c:	0106c6b3          	xor	a3,a3,a6
   13940:	0117c7b3          	xor	a5,a5,a7
   13944:	0697cf93          	xori	t6,a5,105
   13948:	fff8ce13          	xori	t3,a7,-1
   1394c:	fff84613          	xori	a2,a6,-1
   13950:	fffec313          	xori	t1,t4,-1
   13954:	f967c713          	xori	a4,a5,-106
   13958:	fff6c513          	xori	a0,a3,-1
   1395c:	01fe7e33          	and	t3,t3,t6
   13960:	8e75                	c.and	a2,a3
   13962:	01137333          	and	t1,t1,a7
   13966:	01077733          	and	a4,a4,a6
   1396a:	01d57533          	and	a0,a0,t4
   1396e:	00d34333          	xor	t1,t1,a3
   13972:	01de4e33          	xor	t3,t3,t4
   13976:	01f64633          	xor	a2,a2,t6
   1397a:	01174733          	xor	a4,a4,a7
   1397e:	01054533          	xor	a0,a0,a6
   13982:	01c74733          	xor	a4,a4,t3
   13986:	8d31                	c.xor	a0,a2
   13988:	03931f93          	slli	t6,t1,0x39
   1398c:	fff64613          	xori	a2,a2,-1
   13990:	02935793          	srli	a5,t1,0x29
   13994:	00735693          	srli	a3,t1,0x7
   13998:	01731093          	slli	ra,t1,0x17
   1399c:	006e4eb3          	xor	t4,t3,t1
   139a0:	00371b13          	slli	s6,a4,0x3
   139a4:	01971a93          	slli	s5,a4,0x19
   139a8:	00a55a13          	srli	s4,a0,0xa
   139ac:	01155993          	srli	s3,a0,0x11
   139b0:	00f0e0b3          	or	ra,ra,a5
   139b4:	00165913          	srli	s2,a2,0x1
   139b8:	03a61493          	slli	s1,a2,0x3a
   139bc:	03d75393          	srli	t2,a4,0x3d
   139c0:	02775893          	srli	a7,a4,0x27
   139c4:	03651293          	slli	t0,a0,0x36
   139c8:	02f51813          	slli	a6,a0,0x2f
   139cc:	01f6e6b3          	or	a3,a3,t6
   139d0:	03f61793          	slli	a5,a2,0x3f
   139d4:	00665f93          	srli	t6,a2,0x6
   139d8:	0016c6b3          	xor	a3,a3,ra
   139dc:	007b63b3          	or	t2,s6,t2
   139e0:	009fe0b3          	or	ra,t6,s1
   139e4:	005a62b3          	or	t0,s4,t0
   139e8:	02de9493          	slli	s1,t4,0x2d
   139ec:	011ae8b3          	or	a7,s5,a7
   139f0:	0109e833          	or	a6,s3,a6
   139f4:	00f967b3          	or	a5,s2,a5
   139f8:	013edf93          	srli	t6,t4,0x13
   139fc:	009fefb3          	or	t6,t6,s1
   13a00:	01c6ce33          	xor	t3,a3,t3
   13a04:	0113c8b3          	xor	a7,t2,a7
   13a08:	0102c833          	xor	a6,t0,a6
   13a0c:	0017c7b3          	xor	a5,a5,ra
   13a10:	01ced293          	srli	t0,t4,0x1c
   13a14:	1e92                	c.slli	t4,0x24
   13a16:	00e8c8b3          	xor	a7,a7,a4
   13a1a:	00a84833          	xor	a6,a6,a0
   13a1e:	01cfc733          	xor	a4,t6,t3
   13a22:	8fb1                	c.xor	a5,a2
   13a24:	0066c6b3          	xor	a3,a3,t1
   13a28:	01d2e633          	or	a2,t0,t4
   13a2c:	8f31                	c.xor	a4,a2
   13a2e:	0106c6b3          	xor	a3,a3,a6
   13a32:	0117c7b3          	xor	a5,a5,a7
   13a36:	05a7ce93          	xori	t4,a5,90
   13a3a:	fff8ce13          	xori	t3,a7,-1
   13a3e:	fff84613          	xori	a2,a6,-1
   13a42:	fff74313          	xori	t1,a4,-1
   13a46:	fff6c513          	xori	a0,a3,-1
   13a4a:	fa57c793          	xori	a5,a5,-91
   13a4e:	01de7e33          	and	t3,t3,t4
   13a52:	8e75                	c.and	a2,a3
   13a54:	01137333          	and	t1,t1,a7
   13a58:	0107f7b3          	and	a5,a5,a6
   13a5c:	8d79                	c.and	a0,a4
   13a5e:	00d34333          	xor	t1,t1,a3
   13a62:	00ee4e33          	xor	t3,t3,a4
   13a66:	01d64633          	xor	a2,a2,t4
   13a6a:	0117c7b3          	xor	a5,a5,a7
   13a6e:	01054533          	xor	a0,a0,a6
   13a72:	01c7c7b3          	xor	a5,a5,t3
   13a76:	8d31                	c.xor	a0,a2
   13a78:	03931f93          	slli	t6,t1,0x39
   13a7c:	fff64613          	xori	a2,a2,-1
   13a80:	02935713          	srli	a4,t1,0x29
   13a84:	00735693          	srli	a3,t1,0x7
   13a88:	01731093          	slli	ra,t1,0x17
   13a8c:	006e4eb3          	xor	t4,t3,t1
   13a90:	00379b13          	slli	s6,a5,0x3
   13a94:	01979a93          	slli	s5,a5,0x19
   13a98:	00e0e0b3          	or	ra,ra,a4
   13a9c:	00165913          	srli	s2,a2,0x1
   13aa0:	03d7d393          	srli	t2,a5,0x3d
   13aa4:	0277d893          	srli	a7,a5,0x27
   13aa8:	01f6e6b3          	or	a3,a3,t6
   13aac:	03f61713          	slli	a4,a2,0x3f
   13ab0:	00665f93          	srli	t6,a2,0x6
   13ab4:	03a61493          	slli	s1,a2,0x3a
   13ab8:	03651293          	slli	t0,a0,0x36
   13abc:	01155993          	srli	s3,a0,0x11
   13ac0:	0016c6b3          	xor	a3,a3,ra
   13ac4:	007b63b3          	or	t2,s6,t2
   13ac8:	009fe4b3          	or	s1,t6,s1
   13acc:	013ed093          	srli	ra,t4,0x13
   13ad0:	02de9f93          	slli	t6,t4,0x2d
   13ad4:	00a55a13          	srli	s4,a0,0xa
   13ad8:	02f51813          	slli	a6,a0,0x2f
   13adc:	011ae8b3          	or	a7,s5,a7
   13ae0:	00e96733          	or	a4,s2,a4
   13ae4:	005a6a33          	or	s4,s4,t0
   13ae8:	0113c8b3          	xor	a7,t2,a7
   13aec:	8f25                	c.xor	a4,s1
   13aee:	01f0e3b3          	or	t2,ra,t6
   13af2:	01c6ce33          	xor	t3,a3,t3
   13af6:	01ced093          	srli	ra,t4,0x1c
   13afa:	0109e833          	or	a6,s3,a6
   13afe:	1e92                	c.slli	t4,0x24
   13b00:	00f8c2b3          	xor	t0,a7,a5
   13b04:	010a4833          	xor	a6,s4,a6
   13b08:	00c747b3          	xor	a5,a4,a2
   13b0c:	01d0e633          	or	a2,ra,t4
   13b10:	01c3c733          	xor	a4,t2,t3
   13b14:	00a84fb3          	xor	t6,a6,a0
   13b18:	8f31                	c.xor	a4,a2
   13b1a:	0057c7b3          	xor	a5,a5,t0
   13b1e:	0066c6b3          	xor	a3,a3,t1
   13b22:	01f6c6b3          	xor	a3,a3,t6
   13b26:	04b7c613          	xori	a2,a5,75
   13b2a:	fff2c513          	xori	a0,t0,-1
   13b2e:	fff74e13          	xori	t3,a4,-1
   13b32:	fb47c793          	xori	a5,a5,-76
   13b36:	ffffc813          	xori	a6,t6,-1
   13b3a:	fff6c893          	xori	a7,a3,-1
   13b3e:	8d71                	c.and	a0,a2
   13b40:	005e7e33          	and	t3,t3,t0
   13b44:	01f7f7b3          	and	a5,a5,t6
   13b48:	00de4e33          	xor	t3,t3,a3
   13b4c:	8d39                	c.xor	a0,a4
   13b4e:	00d87833          	and	a6,a6,a3
   13b52:	00e8f8b3          	and	a7,a7,a4
   13b56:	0057c7b3          	xor	a5,a5,t0
   13b5a:	8fa9                	c.xor	a5,a0
   13b5c:	00c84833          	xor	a6,a6,a2
   13b60:	01c54533          	xor	a0,a0,t3
   13b64:	01f8c8b3          	xor	a7,a7,t6
   13b68:	0108c8b3          	xor	a7,a7,a6
   13b6c:	01355693          	srli	a3,a0,0x13
   13b70:	02d51d93          	slli	s11,a0,0x2d
   13b74:	01c55493          	srli	s1,a0,0x1c
   13b78:	02451d13          	slli	s10,a0,0x24
   13b7c:	00a8da93          	srli	s5,a7,0xa
   13b80:	03689613          	slli	a2,a7,0x36
   13b84:	0118da13          	srli	s4,a7,0x11
   13b88:	02f89293          	slli	t0,a7,0x2f
   13b8c:	01b6e6b3          	or	a3,a3,s11
   13b90:	01a4e4b3          	or	s1,s1,s10
   13b94:	fff84813          	xori	a6,a6,-1
   13b98:	029e5f93          	srli	t6,t3,0x29
   13b9c:	00cae633          	or	a2,s5,a2
   13ba0:	8ea5                	c.xor	a3,s1
   13ba2:	017e1913          	slli	s2,t3,0x17
   13ba6:	005a62b3          	or	t0,s4,t0
   13baa:	00379313          	slli	t1,a5,0x3
   13bae:	03d7dc93          	srli	s9,a5,0x3d
   13bb2:	01979093          	slli	ra,a5,0x19
   13bb6:	0277dc13          	srli	s8,a5,0x27
   13bba:	01f96933          	or	s2,s2,t6
   13bbe:	00185713          	srli	a4,a6,0x1
   13bc2:	00564fb3          	xor	t6,a2,t0
   13bc6:	03f81b93          	slli	s7,a6,0x3f
   13bca:	00a6c633          	xor	a2,a3,a0
   13bce:	00685393          	srli	t2,a6,0x6
   13bd2:	03a81b13          	slli	s6,a6,0x3a
   13bd6:	007e5993          	srli	s3,t3,0x7
   13bda:	039e1e93          	slli	t4,t3,0x39
   13bde:	6682                	c.ldsp	a3,0(sp)
   13be0:	01936333          	or	t1,t1,s9
   13be4:	0180e0b3          	or	ra,ra,s8
   13be8:	01776733          	or	a4,a4,s7
   13bec:	0163e3b3          	or	t2,t2,s6
   13bf0:	01d9eeb3          	or	t4,s3,t4
   13bf4:	00134333          	xor	t1,t1,ra
   13bf8:	00774733          	xor	a4,a4,t2
   13bfc:	012eceb3          	xor	t4,t4,s2
   13c00:	0421                	c.addi	s0,8
   13c02:	00f34533          	xor	a0,t1,a5
   13c06:	01074733          	xor	a4,a4,a6
   13c0a:	011fcfb3          	xor	t6,t6,a7
   13c0e:	01cec7b3          	xor	a5,t4,t3
   13c12:	0f21                	c.addi	t5,8
   13c14:	a0d419e3          	bne	s0,a3,13626 <crypto_aead_decrypt+0x774>
   13c18:	7082                	c.ldsp	ra,32(sp)
   13c1a:	7a22                	c.ldsp	s4,40(sp)
   13c1c:	6ae2                	c.ldsp	s5,24(sp)
   13c1e:	7bc2                	c.ldsp	s7,48(sp)
   13c20:	69a2                	c.ldsp	s3,8(sp)
   13c22:	6942                	c.ldsp	s2,16(sp)
   13c24:	008e                	c.slli	ra,0x3
   13c26:	9bd2                	c.add	s7,s4
   13c28:	f8fe                	c.sdsp	t6,112(sp)
   13c2a:	401a8a33          	sub	s4,s5,ra
   13c2e:	fcbe                	c.sdsp	a5,120(sp)
   13c30:	000a079b          	addiw	a5,s4,0
   13c34:	c3a5                	c.beqz	a5,13c94 <crypto_aead_decrypt+0xde2>
   13c36:	414005bb          	subw	a1,zero,s4
   13c3a:	0035959b          	slliw	a1,a1,0x3
   13c3e:	885e                	c.mv	a6,s7
   13c40:	0385859b          	addiw	a1,a1,56
   13c44:	03800793          	addi	a5,zero,56
   13c48:	4881                	c.li	a7,0
   13c4a:	00084683          	lbu	a3,0(a6)
   13c4e:	0805                	c.addi	a6,1
   13c50:	00f696b3          	sll	a3,a3,a5
   13c54:	37e1                	c.addiw	a5,-8
   13c56:	00d8e8b3          	or	a7,a7,a3
   13c5a:	feb798e3          	bne	a5,a1,13c4a <crypto_aead_decrypt+0xd98>
   13c5e:	6782                	c.ldsp	a5,0(sp)
   13c60:	00c8c333          	xor	t1,a7,a2
   13c64:	03800693          	addi	a3,zero,56
   13c68:	00d35833          	srl	a6,t1,a3
   13c6c:	01078023          	sb	a6,0(a5)
   13c70:	36e1                	c.addiw	a3,-8
   13c72:	0785                	c.addi	a5,1
   13c74:	feb69ae3          	bne	a3,a1,13c68 <crypto_aead_decrypt+0xdb6>
   13c78:	03800793          	addi	a5,zero,56
   13c7c:	0ff00813          	addi	a6,zero,255
   13c80:	00f816b3          	sll	a3,a6,a5
   13c84:	fff6c693          	xori	a3,a3,-1
   13c88:	37e1                	c.addiw	a5,-8
   13c8a:	8e75                	c.and	a2,a3
   13c8c:	feb79ae3          	bne	a5,a1,13c80 <crypto_aead_decrypt+0xdce>
   13c90:	01166633          	or	a2,a2,a7
   13c94:	479d                	c.li	a5,7
   13c96:	414787b3          	sub	a5,a5,s4
   13c9a:	0037979b          	slliw	a5,a5,0x3
   13c9e:	08000693          	addi	a3,zero,128
   13ca2:	00f696b3          	sll	a3,a3,a5
   13ca6:	00e9c733          	xor	a4,s3,a4
   13caa:	00a947b3          	xor	a5,s2,a0
   13cae:	8eb1                	c.xor	a3,a2
   13cb0:	08a8                	c.addi4spn	a0,sp,88
   13cb2:	ecb6                	c.sdsp	a3,88(sp)
   13cb4:	f0be                	c.sdsp	a5,96(sp)
   13cb6:	f4ba                	c.sdsp	a4,104(sp)
   13cb8:	83ffd0ef          	jal	ra,114f6 <P12>
   13cbc:	7746                	c.ldsp	a4,112(sp)
   13cbe:	00bc                	c.addi4spn	a5,sp,72
   13cc0:	86be                	c.mv	a3,a5
   13cc2:	00e94933          	xor	s2,s2,a4
   13cc6:	7766                	c.ldsp	a4,120(sp)
   13cc8:	55e1                	c.li	a1,-8
   13cca:	00e9c9b3          	xor	s3,s3,a4
   13cce:	03800713          	addi	a4,zero,56
   13cd2:	00e95633          	srl	a2,s2,a4
   13cd6:	00c68023          	sb	a2,0(a3)
   13cda:	3761                	c.addiw	a4,-8
   13cdc:	0685                	c.addi	a3,1
   13cde:	feb71ae3          	bne	a4,a1,13cd2 <crypto_aead_decrypt+0xe20>
   13ce2:	86be                	c.mv	a3,a5
   13ce4:	03800713          	addi	a4,zero,56
   13ce8:	55e1                	c.li	a1,-8
   13cea:	00e9d633          	srl	a2,s3,a4
   13cee:	00c68423          	sb	a2,8(a3)
   13cf2:	3761                	c.addiw	a4,-8
   13cf4:	0685                	c.addi	a3,1
   13cf6:	feb71ae3          	bne	a4,a1,13cea <crypto_aead_decrypt+0xe38>
   13cfa:	9bd2                	c.add	s7,s4
   13cfc:	01078593          	addi	a1,a5,16
   13d00:	4681                	c.li	a3,0
   13d02:	000bc703          	lbu	a4,0(s7)
   13d06:	0007c603          	lbu	a2,0(a5)
   13d0a:	0785                	c.addi	a5,1
   13d0c:	0b85                	c.addi	s7,1
   13d0e:	8f31                	c.xor	a4,a2
   13d10:	8ed9                	c.or	a3,a4
   13d12:	feb798e3          	bne	a5,a1,13d02 <crypto_aead_decrypt+0xe50>
   13d16:	fff6851b          	addiw	a0,a3,-1
   13d1a:	4085551b          	sraiw	a0,a0,0x8
   13d1e:	8905                	c.andi	a0,1
   13d20:	357d                	c.addiw	a0,-1
   13d22:	70ae                	c.ldsp	ra,232(sp)
   13d24:	740e                	c.ldsp	s0,224(sp)
   13d26:	64ee                	c.ldsp	s1,216(sp)
   13d28:	694e                	c.ldsp	s2,208(sp)
   13d2a:	69ae                	c.ldsp	s3,200(sp)
   13d2c:	6a0e                	c.ldsp	s4,192(sp)
   13d2e:	7aea                	c.ldsp	s5,184(sp)
   13d30:	7b4a                	c.ldsp	s6,176(sp)
   13d32:	7baa                	c.ldsp	s7,168(sp)
   13d34:	7c0a                	c.ldsp	s8,160(sp)
   13d36:	6cea                	c.ldsp	s9,152(sp)
   13d38:	6d4a                	c.ldsp	s10,144(sp)
   13d3a:	6daa                	c.ldsp	s11,136(sp)
   13d3c:	616d                	c.addi16sp	sp,240
   13d3e:	8082                	c.jr	ra
   13d40:	e022                	c.sdsp	s0,0(sp)
   13d42:	b5fd                	c.j	13c30 <crypto_aead_decrypt+0xd7e>
   13d44:	4a81                	c.li	s5,0
   13d46:	b061                	c.j	135ce <crypto_aead_decrypt+0x71c>
   13d48:	000a881b          	addiw	a6,s5,0
   13d4c:	e026                	c.sdsp	s1,0(sp)
   13d4e:	b8a9                	c.j	135a8 <crypto_aead_decrypt+0x6f6>
   13d50:	557d                	c.li	a0,-1
   13d52:	bfc1                	c.j	13d22 <crypto_aead_decrypt+0xe70>

0000000000013d54 <crypto_aead_decrypt_debug>:
   13d54:	7151                	c.addi16sp	sp,-240
   13d56:	f95a                	c.sdsp	s6,176(sp)
   13d58:	f586                	c.sdsp	ra,232(sp)
   13d5a:	8b3a                	c.mv	s6,a4
   13d5c:	f1a2                	c.sdsp	s0,224(sp)
   13d5e:	eda6                	c.sdsp	s1,216(sp)
   13d60:	e9ca                	c.sdsp	s2,208(sp)
   13d62:	e5ce                	c.sdsp	s3,200(sp)
   13d64:	e1d2                	c.sdsp	s4,192(sp)
   13d66:	fd56                	c.sdsp	s5,184(sp)
   13d68:	f55e                	c.sdsp	s7,168(sp)
   13d6a:	f162                	c.sdsp	s8,160(sp)
   13d6c:	ed66                	c.sdsp	s9,152(sp)
   13d6e:	e96a                	c.sdsp	s10,144(sp)
   13d70:	e56e                	c.sdsp	s11,136(sp)
   13d72:	473d                	c.li	a4,15
   13d74:	764e                	c.ldsp	a2,240(sp)
   13d76:	696776e3          	bgeu	a4,s6,14c02 <crypto_aead_decrypt_debug+0xeae>
   13d7a:	ff0b0a13          	addi	s4,s6,-16
   13d7e:	8bb6                	c.mv	s7,a3
   13d80:	84be                	c.mv	s1,a5
   13d82:	0145b023          	sd	s4,0(a1)
   13d86:	842a                	c.mv	s0,a0
   13d88:	8ac2                	c.mv	s5,a6
   13d8a:	86b2                	c.mv	a3,a2
   13d8c:	03800793          	addi	a5,zero,56
   13d90:	4901                	c.li	s2,0
   13d92:	55e1                	c.li	a1,-8
   13d94:	0006c703          	lbu	a4,0(a3)
   13d98:	0685                	c.addi	a3,1
   13d9a:	00f71733          	sll	a4,a4,a5
   13d9e:	37e1                	c.addiw	a5,-8
   13da0:	00e96933          	or	s2,s2,a4
   13da4:	feb798e3          	bne	a5,a1,13d94 <crypto_aead_decrypt_debug+0x40>
   13da8:	00860693          	addi	a3,a2,8
   13dac:	03800793          	addi	a5,zero,56
   13db0:	4981                	c.li	s3,0
   13db2:	5661                	c.li	a2,-8
   13db4:	0006c703          	lbu	a4,0(a3)
   13db8:	0685                	c.addi	a3,1
   13dba:	00f71733          	sll	a4,a4,a5
   13dbe:	37e1                	c.addiw	a5,-8
   13dc0:	00e9e9b3          	or	s3,s3,a4
   13dc4:	fec798e3          	bne	a5,a2,13db4 <crypto_aead_decrypt_debug+0x60>
   13dc8:	86c6                	c.mv	a3,a7
   13dca:	03800793          	addi	a5,zero,56
   13dce:	4601                	c.li	a2,0
   13dd0:	55e1                	c.li	a1,-8
   13dd2:	0006c703          	lbu	a4,0(a3)
   13dd6:	0685                	c.addi	a3,1
   13dd8:	00f71733          	sll	a4,a4,a5
   13ddc:	37e1                	c.addiw	a5,-8
   13dde:	8e59                	c.or	a2,a4
   13de0:	feb799e3          	bne	a5,a1,13dd2 <crypto_aead_decrypt_debug+0x7e>
   13de4:	08a1                	c.addi	a7,8
   13de6:	03800793          	addi	a5,zero,56
   13dea:	4681                	c.li	a3,0
   13dec:	55e1                	c.li	a1,-8
   13dee:	0008c703          	lbu	a4,0(a7)
   13df2:	0885                	c.addi	a7,1
   13df4:	00f71733          	sll	a4,a4,a5
   13df8:	37e1                	c.addiw	a5,-8
   13dfa:	8ed9                	c.or	a3,a4
   13dfc:	feb799e3          	bne	a5,a1,13dee <crypto_aead_decrypt_debug+0x9a>
   13e00:	c02007b7          	lui	a5,0xc0200
   13e04:	60378793          	addi	a5,a5,1539 # ffffffffc0200603 <__BSS_END__+0xffffffffc01cecf3>
   13e08:	1786                	c.slli	a5,0x21
   13e0a:	08a8                	c.addi4spn	a0,sp,88
   13e0c:	ecbe                	c.sdsp	a5,88(sp)
   13e0e:	fcb6                	c.sdsp	a3,120(sp)
   13e10:	f0ca                	c.sdsp	s2,96(sp)
   13e12:	f4ce                	c.sdsp	s3,104(sp)
   13e14:	f8b2                	c.sdsp	a2,112(sp)
   13e16:	ee0fd0ef          	jal	ra,114f6 <P12>
   13e1a:	78c6                	c.ldsp	a7,112(sp)
   13e1c:	77e6                	c.ldsp	a5,120(sp)
   13e1e:	011948b3          	xor	a7,s2,a7
   13e22:	00f9c6b3          	xor	a3,s3,a5
   13e26:	f8c6                	c.sdsp	a7,112(sp)
   13e28:	fcb6                	c.sdsp	a3,120(sp)
   13e2a:	660a8263          	beq	s5,zero,1448e <crypto_aead_decrypt_debug+0x73a>
   13e2e:	471d                	c.li	a4,7
   13e30:	67e6                	c.ldsp	a5,88(sp)
   13e32:	5d5774e3          	bgeu	a4,s5,14bfa <crypto_aead_decrypt_debug+0xea6>
   13e36:	ff8a8713          	addi	a4,s5,-8
   13e3a:	9b61                	c.andi	a4,-8
   13e3c:	0721                	c.addi	a4,8
   13e3e:	7826                	c.ldsp	a6,104(sp)
   13e40:	7f06                	c.ldsp	t5,96(sp)
   13e42:	00e48fb3          	add	t6,s1,a4
   13e46:	e07e                	c.sdsp	t6,0(sp)
   13e48:	5ee1                	c.li	t4,-8
   13e4a:	e44e                	c.sdsp	s3,8(sp)
   13e4c:	e84a                	c.sdsp	s2,16(sp)
   13e4e:	8e3e                	c.mv	t3,a5
   13e50:	ec52                	c.sdsp	s4,24(sp)
   13e52:	f022                	c.sdsp	s0,32(sp)
   13e54:	f45e                	c.sdsp	s7,40(sp)
   13e56:	f85a                	c.sdsp	s6,48(sp)
   13e58:	fc56                	c.sdsp	s5,56(sp)
   13e5a:	85a6                	c.mv	a1,s1
   13e5c:	03800713          	addi	a4,zero,56
   13e60:	4501                	c.li	a0,0
   13e62:	0005c783          	lbu	a5,0(a1)
   13e66:	0585                	c.addi	a1,1
   13e68:	00e797b3          	sll	a5,a5,a4
   13e6c:	3761                	c.addiw	a4,-8
   13e6e:	8d5d                	c.or	a0,a5
   13e70:	ffd719e3          	bne	a4,t4,13e62 <crypto_aead_decrypt_debug+0x10e>
   13e74:	00de4e33          	xor	t3,t3,a3
   13e78:	00ae4533          	xor	a0,t3,a0
   13e7c:	00d8c6b3          	xor	a3,a7,a3
   13e80:	010f47b3          	xor	a5,t5,a6
   13e84:	fff8c593          	xori	a1,a7,-1
   13e88:	0967c813          	xori	a6,a5,150
   13e8c:	ffff4613          	xori	a2,t5,-1
   13e90:	8df5                	c.and	a1,a3
   13e92:	fff54313          	xori	t1,a0,-1
   13e96:	f697c713          	xori	a4,a5,-151
   13e9a:	0105c5b3          	xor	a1,a1,a6
   13e9e:	01e37333          	and	t1,t1,t5
   13ea2:	01177733          	and	a4,a4,a7
   13ea6:	01067633          	and	a2,a2,a6
   13eaa:	fff6ce13          	xori	t3,a3,-1
   13eae:	00d34333          	xor	t1,t1,a3
   13eb2:	8e29                	c.xor	a2,a0
   13eb4:	0115c8b3          	xor	a7,a1,a7
   13eb8:	01e74733          	xor	a4,a4,t5
   13ebc:	00ae7e33          	and	t3,t3,a0
   13ec0:	8f31                	c.xor	a4,a2
   13ec2:	011e4e33          	xor	t3,t3,a7
   13ec6:	00664633          	xor	a2,a2,t1
   13eca:	fff5c593          	xori	a1,a1,-1
   13ece:	03d75d93          	srli	s11,a4,0x3d
   13ed2:	02775d13          	srli	s10,a4,0x27
   13ed6:	036e1c93          	slli	s9,t3,0x36
   13eda:	02fe1c13          	slli	s8,t3,0x2f
   13ede:	03931b93          	slli	s7,t1,0x39
   13ee2:	02935b13          	srli	s6,t1,0x29
   13ee6:	0015da93          	srli	s5,a1,0x1
   13eea:	0065da13          	srli	s4,a1,0x6
   13eee:	01365993          	srli	s3,a2,0x13
   13ef2:	01c65913          	srli	s2,a2,0x1c
   13ef6:	00371893          	slli	a7,a4,0x3
   13efa:	01971413          	slli	s0,a4,0x19
   13efe:	00ae5813          	srli	a6,t3,0xa
   13f02:	011e5093          	srli	ra,t3,0x11
   13f06:	00735693          	srli	a3,t1,0x7
   13f0a:	01731393          	slli	t2,t1,0x17
   13f0e:	03f59793          	slli	a5,a1,0x3f
   13f12:	03a59293          	slli	t0,a1,0x3a
   13f16:	02d61513          	slli	a0,a2,0x2d
   13f1a:	02461f13          	slli	t5,a2,0x24
   13f1e:	01a46433          	or	s0,s0,s10
   13f22:	0180e0b3          	or	ra,ra,s8
   13f26:	0163e3b3          	or	t2,t2,s6
   13f2a:	005a62b3          	or	t0,s4,t0
   13f2e:	01e96f33          	or	t5,s2,t5
   13f32:	01b8e8b3          	or	a7,a7,s11
   13f36:	01986833          	or	a6,a6,s9
   13f3a:	0176e6b3          	or	a3,a3,s7
   13f3e:	00fae7b3          	or	a5,s5,a5
   13f42:	00a9e533          	or	a0,s3,a0
   13f46:	0088c8b3          	xor	a7,a7,s0
   13f4a:	00184833          	xor	a6,a6,ra
   13f4e:	0076c6b3          	xor	a3,a3,t2
   13f52:	0057c7b3          	xor	a5,a5,t0
   13f56:	01e54533          	xor	a0,a0,t5
   13f5a:	00e8c8b3          	xor	a7,a7,a4
   13f5e:	01c84833          	xor	a6,a6,t3
   13f62:	0066c6b3          	xor	a3,a3,t1
   13f66:	8fad                	c.xor	a5,a1
   13f68:	8d31                	c.xor	a0,a2
   13f6a:	8d35                	c.xor	a0,a3
   13f6c:	0117c7b3          	xor	a5,a5,a7
   13f70:	00d846b3          	xor	a3,a6,a3
   13f74:	0877c313          	xori	t1,a5,135
   13f78:	fff8c613          	xori	a2,a7,-1
   13f7c:	fff84593          	xori	a1,a6,-1
   13f80:	fff54e13          	xori	t3,a0,-1
   13f84:	f787c713          	xori	a4,a5,-136
   13f88:	fff6c793          	xori	a5,a3,-1
   13f8c:	8fe9                	c.and	a5,a0
   13f8e:	00667633          	and	a2,a2,t1
   13f92:	8df5                	c.and	a1,a3
   13f94:	011e7e33          	and	t3,t3,a7
   13f98:	01077733          	and	a4,a4,a6
   13f9c:	00de4e33          	xor	t3,t3,a3
   13fa0:	8e29                	c.xor	a2,a0
   13fa2:	0065c5b3          	xor	a1,a1,t1
   13fa6:	01174733          	xor	a4,a4,a7
   13faa:	0107c833          	xor	a6,a5,a6
   13fae:	8f31                	c.xor	a4,a2
   13fb0:	00b84833          	xor	a6,a6,a1
   13fb4:	01c64633          	xor	a2,a2,t3
   13fb8:	fff5c593          	xori	a1,a1,-1
   13fbc:	03d75d93          	srli	s11,a4,0x3d
   13fc0:	02775d13          	srli	s10,a4,0x27
   13fc4:	03681c93          	slli	s9,a6,0x36
   13fc8:	02f81c13          	slli	s8,a6,0x2f
   13fcc:	039e1b93          	slli	s7,t3,0x39
   13fd0:	029e5b13          	srli	s6,t3,0x29
   13fd4:	0015da93          	srli	s5,a1,0x1
   13fd8:	0065da13          	srli	s4,a1,0x6
   13fdc:	01365993          	srli	s3,a2,0x13
   13fe0:	01c65913          	srli	s2,a2,0x1c
   13fe4:	00371313          	slli	t1,a4,0x3
   13fe8:	01971413          	slli	s0,a4,0x19
   13fec:	00a85893          	srli	a7,a6,0xa
   13ff0:	01185093          	srli	ra,a6,0x11
   13ff4:	007e5693          	srli	a3,t3,0x7
   13ff8:	017e1393          	slli	t2,t3,0x17
   13ffc:	03f59793          	slli	a5,a1,0x3f
   14000:	03a59293          	slli	t0,a1,0x3a
   14004:	02d61513          	slli	a0,a2,0x2d
   14008:	02461f13          	slli	t5,a2,0x24
   1400c:	01a46433          	or	s0,s0,s10
   14010:	0180e0b3          	or	ra,ra,s8
   14014:	0163e3b3          	or	t2,t2,s6
   14018:	005a62b3          	or	t0,s4,t0
   1401c:	00a9e533          	or	a0,s3,a0
   14020:	01b36333          	or	t1,t1,s11
   14024:	0198e8b3          	or	a7,a7,s9
   14028:	0176e6b3          	or	a3,a3,s7
   1402c:	00fae7b3          	or	a5,s5,a5
   14030:	01e96f33          	or	t5,s2,t5
   14034:	0076c6b3          	xor	a3,a3,t2
   14038:	01e54f33          	xor	t5,a0,t5
   1403c:	00834333          	xor	t1,t1,s0
   14040:	0018c8b3          	xor	a7,a7,ra
   14044:	0057c7b3          	xor	a5,a5,t0
   14048:	00e34333          	xor	t1,t1,a4
   1404c:	0108c8b3          	xor	a7,a7,a6
   14050:	01c6c533          	xor	a0,a3,t3
   14054:	00cf4833          	xor	a6,t5,a2
   14058:	8fad                	c.xor	a5,a1
   1405a:	00a84833          	xor	a6,a6,a0
   1405e:	0067c7b3          	xor	a5,a5,t1
   14062:	00a8c533          	xor	a0,a7,a0
   14066:	0787cf13          	xori	t5,a5,120
   1406a:	fff34e13          	xori	t3,t1,-1
   1406e:	fff8c613          	xori	a2,a7,-1
   14072:	fff84693          	xori	a3,a6,-1
   14076:	f877c713          	xori	a4,a5,-121
   1407a:	fff54593          	xori	a1,a0,-1
   1407e:	01ee7e33          	and	t3,t3,t5
   14082:	8e69                	c.and	a2,a0
   14084:	0066f6b3          	and	a3,a3,t1
   14088:	01177733          	and	a4,a4,a7
   1408c:	0105f5b3          	and	a1,a1,a6
   14090:	8ea9                	c.xor	a3,a0
   14092:	010e4e33          	xor	t3,t3,a6
   14096:	01e64633          	xor	a2,a2,t5
   1409a:	00674733          	xor	a4,a4,t1
   1409e:	0115c5b3          	xor	a1,a1,a7
   140a2:	01c74733          	xor	a4,a4,t3
   140a6:	8db1                	c.xor	a1,a2
   140a8:	03969f13          	slli	t5,a3,0x39
   140ac:	fff64613          	xori	a2,a2,-1
   140b0:	0296d793          	srli	a5,a3,0x29
   140b4:	0076d893          	srli	a7,a3,0x7
   140b8:	01769093          	slli	ra,a3,0x17
   140bc:	00de4333          	xor	t1,t3,a3
   140c0:	00371b13          	slli	s6,a4,0x3
   140c4:	01971a93          	slli	s5,a4,0x19
   140c8:	02775813          	srli	a6,a4,0x27
   140cc:	03659293          	slli	t0,a1,0x36
   140d0:	0115d993          	srli	s3,a1,0x11
   140d4:	00f0e0b3          	or	ra,ra,a5
   140d8:	00165913          	srli	s2,a2,0x1
   140dc:	03d75393          	srli	t2,a4,0x3d
   140e0:	00a5da13          	srli	s4,a1,0xa
   140e4:	02f59513          	slli	a0,a1,0x2f
   140e8:	01e8e8b3          	or	a7,a7,t5
   140ec:	03f61793          	slli	a5,a2,0x3f
   140f0:	00665f13          	srli	t5,a2,0x6
   140f4:	03a61413          	slli	s0,a2,0x3a
   140f8:	0018c8b3          	xor	a7,a7,ra
   140fc:	007b63b3          	or	t2,s6,t2
   14100:	010ae0b3          	or	ra,s5,a6
   14104:	005a6a33          	or	s4,s4,t0
   14108:	008f6433          	or	s0,t5,s0
   1410c:	00a9e533          	or	a0,s3,a0
   14110:	02d31f13          	slli	t5,t1,0x2d
   14114:	00f967b3          	or	a5,s2,a5
   14118:	01335813          	srli	a6,t1,0x13
   1411c:	0013c2b3          	xor	t0,t2,ra
   14120:	00aa4533          	xor	a0,s4,a0
   14124:	011e4e33          	xor	t3,t3,a7
   14128:	01c35393          	srli	t2,t1,0x1c
   1412c:	8fa1                	c.xor	a5,s0
   1412e:	01e86833          	or	a6,a6,t5
   14132:	1312                	c.slli	t1,0x24
   14134:	00e2c2b3          	xor	t0,t0,a4
   14138:	00b54f33          	xor	t5,a0,a1
   1413c:	0063e733          	or	a4,t2,t1
   14140:	0116c6b3          	xor	a3,a3,a7
   14144:	8fb1                	c.xor	a5,a2
   14146:	01c84833          	xor	a6,a6,t3
   1414a:	01e6c533          	xor	a0,a3,t5
   1414e:	00e84833          	xor	a6,a6,a4
   14152:	0057c7b3          	xor	a5,a5,t0
   14156:	0697c313          	xori	t1,a5,105
   1415a:	fff2c893          	xori	a7,t0,-1
   1415e:	ffff4613          	xori	a2,t5,-1
   14162:	fff84693          	xori	a3,a6,-1
   14166:	f967c713          	xori	a4,a5,-106
   1416a:	fff54593          	xori	a1,a0,-1
   1416e:	0068f8b3          	and	a7,a7,t1
   14172:	8e69                	c.and	a2,a0
   14174:	0056f6b3          	and	a3,a3,t0
   14178:	01e77733          	and	a4,a4,t5
   1417c:	0105f5b3          	and	a1,a1,a6
   14180:	8ea9                	c.xor	a3,a0
   14182:	0108c8b3          	xor	a7,a7,a6
   14186:	00664633          	xor	a2,a2,t1
   1418a:	00574733          	xor	a4,a4,t0
   1418e:	01e5c5b3          	xor	a1,a1,t5
   14192:	01174733          	xor	a4,a4,a7
   14196:	8db1                	c.xor	a1,a2
   14198:	03969f13          	slli	t5,a3,0x39
   1419c:	fff64613          	xori	a2,a2,-1
   141a0:	0296d793          	srli	a5,a3,0x29
   141a4:	0076d313          	srli	t1,a3,0x7
   141a8:	01769093          	slli	ra,a3,0x17
   141ac:	00d8ce33          	xor	t3,a7,a3
   141b0:	00371b13          	slli	s6,a4,0x3
   141b4:	01971a93          	slli	s5,a4,0x19
   141b8:	02775813          	srli	a6,a4,0x27
   141bc:	03659293          	slli	t0,a1,0x36
   141c0:	0115d993          	srli	s3,a1,0x11
   141c4:	00f0e0b3          	or	ra,ra,a5
   141c8:	00165913          	srli	s2,a2,0x1
   141cc:	03d75393          	srli	t2,a4,0x3d
   141d0:	00a5da13          	srli	s4,a1,0xa
   141d4:	02f59513          	slli	a0,a1,0x2f
   141d8:	01e36333          	or	t1,t1,t5
   141dc:	03f61793          	slli	a5,a2,0x3f
   141e0:	00665f13          	srli	t5,a2,0x6
   141e4:	03a61413          	slli	s0,a2,0x3a
   141e8:	00134333          	xor	t1,t1,ra
   141ec:	007b63b3          	or	t2,s6,t2
   141f0:	010ae0b3          	or	ra,s5,a6
   141f4:	005a6a33          	or	s4,s4,t0
   141f8:	008f6433          	or	s0,t5,s0
   141fc:	00a9e533          	or	a0,s3,a0
   14200:	02de1f13          	slli	t5,t3,0x2d
   14204:	00f967b3          	or	a5,s2,a5
   14208:	013e5813          	srli	a6,t3,0x13
   1420c:	0013c2b3          	xor	t0,t2,ra
   14210:	00aa4533          	xor	a0,s4,a0
   14214:	0068c8b3          	xor	a7,a7,t1
   14218:	01ce5393          	srli	t2,t3,0x1c
   1421c:	8fa1                	c.xor	a5,s0
   1421e:	01e86833          	or	a6,a6,t5
   14222:	1e12                	c.slli	t3,0x24
   14224:	00e2c2b3          	xor	t0,t0,a4
   14228:	00b54f33          	xor	t5,a0,a1
   1422c:	01c3e733          	or	a4,t2,t3
   14230:	0066c6b3          	xor	a3,a3,t1
   14234:	8fb1                	c.xor	a5,a2
   14236:	01184833          	xor	a6,a6,a7
   1423a:	00e84833          	xor	a6,a6,a4
   1423e:	0057c7b3          	xor	a5,a5,t0
   14242:	01e6c733          	xor	a4,a3,t5
   14246:	05a7c893          	xori	a7,a5,90
   1424a:	fff2c613          	xori	a2,t0,-1
   1424e:	ffff4593          	xori	a1,t5,-1
   14252:	fff84693          	xori	a3,a6,-1
   14256:	fff74513          	xori	a0,a4,-1
   1425a:	fa57c793          	xori	a5,a5,-91
   1425e:	01167633          	and	a2,a2,a7
   14262:	8df9                	c.and	a1,a4
   14264:	0056f6b3          	and	a3,a3,t0
   14268:	01e7f7b3          	and	a5,a5,t5
   1426c:	01057533          	and	a0,a0,a6
   14270:	8eb9                	c.xor	a3,a4
   14272:	01064633          	xor	a2,a2,a6
   14276:	0115c5b3          	xor	a1,a1,a7
   1427a:	0057c7b3          	xor	a5,a5,t0
   1427e:	01e54533          	xor	a0,a0,t5
   14282:	8fb1                	c.xor	a5,a2
   14284:	8d2d                	c.xor	a0,a1
   14286:	03969f13          	slli	t5,a3,0x39
   1428a:	fff5c593          	xori	a1,a1,-1
   1428e:	0296d713          	srli	a4,a3,0x29
   14292:	0076d313          	srli	t1,a3,0x7
   14296:	01769093          	slli	ra,a3,0x17
   1429a:	00d64e33          	xor	t3,a2,a3
   1429e:	00379b13          	slli	s6,a5,0x3
   142a2:	01979a93          	slli	s5,a5,0x19
   142a6:	00a55a13          	srli	s4,a0,0xa
   142aa:	01155993          	srli	s3,a0,0x11
   142ae:	00e0e0b3          	or	ra,ra,a4
   142b2:	0015d913          	srli	s2,a1,0x1
   142b6:	03a59413          	slli	s0,a1,0x3a
   142ba:	03d7d393          	srli	t2,a5,0x3d
   142be:	0277d893          	srli	a7,a5,0x27
   142c2:	03651293          	slli	t0,a0,0x36
   142c6:	02f51813          	slli	a6,a0,0x2f
   142ca:	01e36333          	or	t1,t1,t5
   142ce:	03f59713          	slli	a4,a1,0x3f
   142d2:	0065df13          	srli	t5,a1,0x6
   142d6:	00134333          	xor	t1,t1,ra
   142da:	007b63b3          	or	t2,s6,t2
   142de:	005a62b3          	or	t0,s4,t0
   142e2:	008f6f33          	or	t5,t5,s0
   142e6:	013e5093          	srli	ra,t3,0x13
   142ea:	02de1413          	slli	s0,t3,0x2d
   142ee:	011ae8b3          	or	a7,s5,a7
   142f2:	0109e833          	or	a6,s3,a6
   142f6:	00e96733          	or	a4,s2,a4
   142fa:	0113c8b3          	xor	a7,t2,a7
   142fe:	01e74733          	xor	a4,a4,t5
   14302:	0080e3b3          	or	t2,ra,s0
   14306:	0102c833          	xor	a6,t0,a6
   1430a:	00664633          	xor	a2,a2,t1
   1430e:	01ce5293          	srli	t0,t3,0x1c
   14312:	1e12                	c.slli	t3,0x24
   14314:	00f8cf33          	xor	t5,a7,a5
   14318:	00a84833          	xor	a6,a6,a0
   1431c:	00b747b3          	xor	a5,a4,a1
   14320:	00764633          	xor	a2,a2,t2
   14324:	01c2e733          	or	a4,t0,t3
   14328:	0066c6b3          	xor	a3,a3,t1
   1432c:	8e39                	c.xor	a2,a4
   1432e:	0106c6b3          	xor	a3,a3,a6
   14332:	01e7c7b3          	xor	a5,a5,t5
   14336:	04b7ce13          	xori	t3,a5,75
   1433a:	ffff4513          	xori	a0,t5,-1
   1433e:	fff84593          	xori	a1,a6,-1
   14342:	fff64313          	xori	t1,a2,-1
   14346:	fb47c713          	xori	a4,a5,-76
   1434a:	fff6c893          	xori	a7,a3,-1
   1434e:	01c57533          	and	a0,a0,t3
   14352:	8df5                	c.and	a1,a3
   14354:	01e37333          	and	t1,t1,t5
   14358:	01077733          	and	a4,a4,a6
   1435c:	00c8f8b3          	and	a7,a7,a2
   14360:	00d34333          	xor	t1,t1,a3
   14364:	8d31                	c.xor	a0,a2
   14366:	01c5c5b3          	xor	a1,a1,t3
   1436a:	01e74733          	xor	a4,a4,t5
   1436e:	0108c8b3          	xor	a7,a7,a6
   14372:	8f29                	c.xor	a4,a0
   14374:	00b8c8b3          	xor	a7,a7,a1
   14378:	00654533          	xor	a0,a0,t1
   1437c:	fff5c593          	xori	a1,a1,-1
   14380:	00a8da93          	srli	s5,a7,0xa
   14384:	03689613          	slli	a2,a7,0x36
   14388:	0118da13          	srli	s4,a7,0x11
   1438c:	02f89293          	slli	t0,a7,0x2f
   14390:	01355e13          	srli	t3,a0,0x13
   14394:	02d51d93          	slli	s11,a0,0x2d
   14398:	01c55413          	srli	s0,a0,0x1c
   1439c:	02451d13          	slli	s10,a0,0x24
   143a0:	00371813          	slli	a6,a4,0x3
   143a4:	03d75c93          	srli	s9,a4,0x3d
   143a8:	01971093          	slli	ra,a4,0x19
   143ac:	02775c13          	srli	s8,a4,0x27
   143b0:	0015d793          	srli	a5,a1,0x1
   143b4:	03f59b93          	slli	s7,a1,0x3f
   143b8:	0065d393          	srli	t2,a1,0x6
   143bc:	03a59b13          	slli	s6,a1,0x3a
   143c0:	00735993          	srli	s3,t1,0x7
   143c4:	03931693          	slli	a3,t1,0x39
   143c8:	01731913          	slli	s2,t1,0x17
   143cc:	02935f13          	srli	t5,t1,0x29
   143d0:	01e96f33          	or	t5,s2,t5
   143d4:	01be6e33          	or	t3,t3,s11
   143d8:	01a46433          	or	s0,s0,s10
   143dc:	01986833          	or	a6,a6,s9
   143e0:	0180e0b3          	or	ra,ra,s8
   143e4:	0177e7b3          	or	a5,a5,s7
   143e8:	0163e3b3          	or	t2,t2,s6
   143ec:	00cae633          	or	a2,s5,a2
   143f0:	005a62b3          	or	t0,s4,t0
   143f4:	00d9e6b3          	or	a3,s3,a3
   143f8:	00184833          	xor	a6,a6,ra
   143fc:	01e6c6b3          	xor	a3,a3,t5
   14400:	008e4e33          	xor	t3,t3,s0
   14404:	0077c7b3          	xor	a5,a5,t2
   14408:	00564633          	xor	a2,a2,t0
   1440c:	04a1                	c.addi	s1,8
   1440e:	00e84f33          	xor	t5,a6,a4
   14412:	00ae4e33          	xor	t3,t3,a0
   14416:	00b7c833          	xor	a6,a5,a1
   1441a:	011648b3          	xor	a7,a2,a7
   1441e:	0066c6b3          	xor	a3,a3,t1
   14422:	a3f49ce3          	bne	s1,t6,13e5a <crypto_aead_decrypt_debug+0x106>
   14426:	7ae2                	c.ldsp	s5,56(sp)
   14428:	f4c2                	c.sdsp	a6,104(sp)
   1442a:	f0fa                	c.sdsp	t5,96(sp)
   1442c:	007afa93          	andi	s5,s5,7
   14430:	f8c6                	c.sdsp	a7,112(sp)
   14432:	fcb6                	c.sdsp	a3,120(sp)
   14434:	69a2                	c.ldsp	s3,8(sp)
   14436:	6942                	c.ldsp	s2,16(sp)
   14438:	6a62                	c.ldsp	s4,24(sp)
   1443a:	7402                	c.ldsp	s0,32(sp)
   1443c:	7ba2                	c.ldsp	s7,40(sp)
   1443e:	7b42                	c.ldsp	s6,48(sp)
   14440:	87f2                	c.mv	a5,t3
   14442:	000a881b          	addiw	a6,s5,0
   14446:	7a0a8863          	beq	s5,zero,14bf6 <crypto_aead_decrypt_debug+0xea2>
   1444a:	6882                	c.ldsp	a7,0(sp)
   1444c:	03800613          	addi	a2,zero,56
   14450:	4701                	c.li	a4,0
   14452:	4581                	c.li	a1,0
   14454:	00e886b3          	add	a3,a7,a4
   14458:	0006c683          	lbu	a3,0(a3)
   1445c:	0705                	c.addi	a4,1
   1445e:	0007051b          	addiw	a0,a4,0
   14462:	00c696b3          	sll	a3,a3,a2
   14466:	8dd5                	c.or	a1,a3
   14468:	3661                	c.addiw	a2,-8
   1446a:	ff0545e3          	blt	a0,a6,14454 <crypto_aead_decrypt_debug+0x700>
   1446e:	8fad                	c.xor	a5,a1
   14470:	469d                	c.li	a3,7
   14472:	415686b3          	sub	a3,a3,s5
   14476:	0036969b          	slliw	a3,a3,0x3
   1447a:	08000713          	addi	a4,zero,128
   1447e:	00d71733          	sll	a4,a4,a3
   14482:	8fb9                	c.xor	a5,a4
   14484:	08a8                	c.addi4spn	a0,sp,88
   14486:	ecbe                	c.sdsp	a5,88(sp)
   14488:	a81fc0ef          	jal	ra,10f08 <P6>
   1448c:	76e6                	c.ldsp	a3,120(sp)
   1448e:	0016c793          	xori	a5,a3,1
   14492:	fcbe                	c.sdsp	a5,120(sp)
   14494:	469d                	c.li	a3,7
   14496:	6666                	c.ldsp	a2,88(sp)
   14498:	7726                	c.ldsp	a4,104(sp)
   1449a:	7506                	c.ldsp	a0,96(sp)
   1449c:	7546fb63          	bgeu	a3,s4,14bf2 <crypto_aead_decrypt_debug+0xe9e>
   144a0:	fe8b0a93          	addi	s5,s6,-24
   144a4:	003ad093          	srli	ra,s5,0x3
   144a8:	00108693          	addi	a3,ra,1
   144ac:	00369a13          	slli	s4,a3,0x3
   144b0:	7fc6                	c.ldsp	t6,112(sp)
   144b2:	014406b3          	add	a3,s0,s4
   144b6:	e036                	c.sdsp	a3,0(sp)
   144b8:	8f5e                	c.mv	t5,s7
   144ba:	55e1                	c.li	a1,-8
   144bc:	e44e                	c.sdsp	s3,8(sp)
   144be:	e84a                	c.sdsp	s2,16(sp)
   144c0:	ec56                	c.sdsp	s5,24(sp)
   144c2:	f006                	c.sdsp	ra,32(sp)
   144c4:	f452                	c.sdsp	s4,40(sp)
   144c6:	f85e                	c.sdsp	s7,48(sp)
   144c8:	8e7a                	c.mv	t3,t5
   144ca:	03800813          	addi	a6,zero,56
   144ce:	4281                	c.li	t0,0
   144d0:	000e4683          	lbu	a3,0(t3)
   144d4:	0e05                	c.addi	t3,1
   144d6:	010696b3          	sll	a3,a3,a6
   144da:	3861                	c.addiw	a6,-8
   144dc:	00d2e2b3          	or	t0,t0,a3
   144e0:	feb818e3          	bne	a6,a1,144d0 <crypto_aead_decrypt_debug+0x77c>
   144e4:	00c2c6b3          	xor	a3,t0,a2
   144e8:	88a2                	c.mv	a7,s0
   144ea:	03800813          	addi	a6,zero,56
   144ee:	0106d633          	srl	a2,a3,a6
   144f2:	00c88023          	sb	a2,0(a7)
   144f6:	3861                	c.addiw	a6,-8
   144f8:	0885                	c.addi	a7,1
   144fa:	feb81ae3          	bne	a6,a1,144ee <crypto_aead_decrypt_debug+0x79a>
   144fe:	00ffc6b3          	xor	a3,t6,a5
   14502:	00f2c2b3          	xor	t0,t0,a5
   14506:	8f29                	c.xor	a4,a0
   14508:	ffffc793          	xori	a5,t6,-1
   1450c:	09674813          	xori	a6,a4,150
   14510:	fff54613          	xori	a2,a0,-1
   14514:	8ff5                	c.and	a5,a3
   14516:	fff2ce13          	xori	t3,t0,-1
   1451a:	f6974713          	xori	a4,a4,-151
   1451e:	0107c7b3          	xor	a5,a5,a6
   14522:	00ae7e33          	and	t3,t3,a0
   14526:	01f77733          	and	a4,a4,t6
   1452a:	01067633          	and	a2,a2,a6
   1452e:	fff6ce93          	xori	t4,a3,-1
   14532:	00de4e33          	xor	t3,t3,a3
   14536:	00564633          	xor	a2,a2,t0
   1453a:	00ffcfb3          	xor	t6,t6,a5
   1453e:	8f29                	c.xor	a4,a0
   14540:	005efeb3          	and	t4,t4,t0
   14544:	8f31                	c.xor	a4,a2
   14546:	01feceb3          	xor	t4,t4,t6
   1454a:	01c64633          	xor	a2,a2,t3
   1454e:	fff7c513          	xori	a0,a5,-1
   14552:	03d75d93          	srli	s11,a4,0x3d
   14556:	02775d13          	srli	s10,a4,0x27
   1455a:	036e9c93          	slli	s9,t4,0x36
   1455e:	02fe9c13          	slli	s8,t4,0x2f
   14562:	039e1b93          	slli	s7,t3,0x39
   14566:	029e5b13          	srli	s6,t3,0x29
   1456a:	00155a93          	srli	s5,a0,0x1
   1456e:	00655a13          	srli	s4,a0,0x6
   14572:	01365993          	srli	s3,a2,0x13
   14576:	01c65913          	srli	s2,a2,0x1c
   1457a:	00371313          	slli	t1,a4,0x3
   1457e:	01971493          	slli	s1,a4,0x19
   14582:	00aed893          	srli	a7,t4,0xa
   14586:	011ed093          	srli	ra,t4,0x11
   1458a:	007e5693          	srli	a3,t3,0x7
   1458e:	017e1393          	slli	t2,t3,0x17
   14592:	03f51793          	slli	a5,a0,0x3f
   14596:	03a51293          	slli	t0,a0,0x3a
   1459a:	02d61813          	slli	a6,a2,0x2d
   1459e:	02461f93          	slli	t6,a2,0x24
   145a2:	01a4e4b3          	or	s1,s1,s10
   145a6:	0180e0b3          	or	ra,ra,s8
   145aa:	0163e3b3          	or	t2,t2,s6
   145ae:	005a62b3          	or	t0,s4,t0
   145b2:	01f96fb3          	or	t6,s2,t6
   145b6:	01b36333          	or	t1,t1,s11
   145ba:	0198e8b3          	or	a7,a7,s9
   145be:	0176e6b3          	or	a3,a3,s7
   145c2:	00fae7b3          	or	a5,s5,a5
   145c6:	0109e833          	or	a6,s3,a6
   145ca:	00934333          	xor	t1,t1,s1
   145ce:	0018c8b3          	xor	a7,a7,ra
   145d2:	0076c6b3          	xor	a3,a3,t2
   145d6:	0057c7b3          	xor	a5,a5,t0
   145da:	01f84833          	xor	a6,a6,t6
   145de:	00e34333          	xor	t1,t1,a4
   145e2:	01d8c8b3          	xor	a7,a7,t4
   145e6:	01c6c6b3          	xor	a3,a3,t3
   145ea:	8fa9                	c.xor	a5,a0
   145ec:	00c84833          	xor	a6,a6,a2
   145f0:	00d84833          	xor	a6,a6,a3
   145f4:	0067c7b3          	xor	a5,a5,t1
   145f8:	00d8c6b3          	xor	a3,a7,a3
   145fc:	0877ce13          	xori	t3,a5,135
   14600:	fff34613          	xori	a2,t1,-1
   14604:	fff8c513          	xori	a0,a7,-1
   14608:	fff84e93          	xori	t4,a6,-1
   1460c:	f787c713          	xori	a4,a5,-136
   14610:	fff6c793          	xori	a5,a3,-1
   14614:	0107f7b3          	and	a5,a5,a6
   14618:	01c67633          	and	a2,a2,t3
   1461c:	8d75                	c.and	a0,a3
   1461e:	006efeb3          	and	t4,t4,t1
   14622:	01177733          	and	a4,a4,a7
   14626:	00deceb3          	xor	t4,t4,a3
   1462a:	01064633          	xor	a2,a2,a6
   1462e:	01c54533          	xor	a0,a0,t3
   14632:	00674733          	xor	a4,a4,t1
   14636:	0117c8b3          	xor	a7,a5,a7
   1463a:	8f31                	c.xor	a4,a2
   1463c:	00a8c8b3          	xor	a7,a7,a0
   14640:	01d64633          	xor	a2,a2,t4
   14644:	fff54513          	xori	a0,a0,-1
   14648:	03d75d93          	srli	s11,a4,0x3d
   1464c:	02775d13          	srli	s10,a4,0x27
   14650:	03689c93          	slli	s9,a7,0x36
   14654:	02f89c13          	slli	s8,a7,0x2f
   14658:	039e9b93          	slli	s7,t4,0x39
   1465c:	029edb13          	srli	s6,t4,0x29
   14660:	00155a93          	srli	s5,a0,0x1
   14664:	00655a13          	srli	s4,a0,0x6
   14668:	01365993          	srli	s3,a2,0x13
   1466c:	01c65913          	srli	s2,a2,0x1c
   14670:	00371e13          	slli	t3,a4,0x3
   14674:	01971493          	slli	s1,a4,0x19
   14678:	00a8d313          	srli	t1,a7,0xa
   1467c:	0118d093          	srli	ra,a7,0x11
   14680:	007ed693          	srli	a3,t4,0x7
   14684:	017e9393          	slli	t2,t4,0x17
   14688:	03f51793          	slli	a5,a0,0x3f
   1468c:	03a51293          	slli	t0,a0,0x3a
   14690:	02d61813          	slli	a6,a2,0x2d
   14694:	02461f93          	slli	t6,a2,0x24
   14698:	01a4e4b3          	or	s1,s1,s10
   1469c:	0180e0b3          	or	ra,ra,s8
   146a0:	0163e3b3          	or	t2,t2,s6
   146a4:	005a62b3          	or	t0,s4,t0
   146a8:	01f96fb3          	or	t6,s2,t6
   146ac:	01be6e33          	or	t3,t3,s11
   146b0:	01936333          	or	t1,t1,s9
   146b4:	0176e6b3          	or	a3,a3,s7
   146b8:	00fae7b3          	or	a5,s5,a5
   146bc:	0109e833          	or	a6,s3,a6
   146c0:	009e4e33          	xor	t3,t3,s1
   146c4:	00134333          	xor	t1,t1,ra
   146c8:	0076c6b3          	xor	a3,a3,t2
   146cc:	0057c7b3          	xor	a5,a5,t0
   146d0:	01f84833          	xor	a6,a6,t6
   146d4:	00ee4e33          	xor	t3,t3,a4
   146d8:	01134333          	xor	t1,t1,a7
   146dc:	01d6c6b3          	xor	a3,a3,t4
   146e0:	8fa9                	c.xor	a5,a0
   146e2:	00c84833          	xor	a6,a6,a2
   146e6:	00d84833          	xor	a6,a6,a3
   146ea:	01c7c7b3          	xor	a5,a5,t3
   146ee:	00d346b3          	xor	a3,t1,a3
   146f2:	0787c893          	xori	a7,a5,120
   146f6:	fffe4f93          	xori	t6,t3,-1
   146fa:	fff34613          	xori	a2,t1,-1
   146fe:	fff84e93          	xori	t4,a6,-1
   14702:	f877c713          	xori	a4,a5,-121
   14706:	fff6c513          	xori	a0,a3,-1
   1470a:	011fffb3          	and	t6,t6,a7
   1470e:	8e75                	c.and	a2,a3
   14710:	01cefeb3          	and	t4,t4,t3
   14714:	00677733          	and	a4,a4,t1
   14718:	01057533          	and	a0,a0,a6
   1471c:	00deceb3          	xor	t4,t4,a3
   14720:	010fcfb3          	xor	t6,t6,a6
   14724:	01164633          	xor	a2,a2,a7
   14728:	01c74733          	xor	a4,a4,t3
   1472c:	00654533          	xor	a0,a0,t1
   14730:	01f74733          	xor	a4,a4,t6
   14734:	8d31                	c.xor	a0,a2
   14736:	039e9e13          	slli	t3,t4,0x39
   1473a:	fff64613          	xori	a2,a2,-1
   1473e:	029ed793          	srli	a5,t4,0x29
   14742:	007ed693          	srli	a3,t4,0x7
   14746:	017e9093          	slli	ra,t4,0x17
   1474a:	01dfc333          	xor	t1,t6,t4
   1474e:	00371b13          	slli	s6,a4,0x3
   14752:	01971a93          	slli	s5,a4,0x19
   14756:	00a55a13          	srli	s4,a0,0xa
   1475a:	01155993          	srli	s3,a0,0x11
   1475e:	00f0e0b3          	or	ra,ra,a5
   14762:	00165913          	srli	s2,a2,0x1
   14766:	03a61493          	slli	s1,a2,0x3a
   1476a:	03d75393          	srli	t2,a4,0x3d
   1476e:	02775893          	srli	a7,a4,0x27
   14772:	03651293          	slli	t0,a0,0x36
   14776:	02f51813          	slli	a6,a0,0x2f
   1477a:	01c6e6b3          	or	a3,a3,t3
   1477e:	03f61793          	slli	a5,a2,0x3f
   14782:	00665e13          	srli	t3,a2,0x6
   14786:	0016c6b3          	xor	a3,a3,ra
   1478a:	007b63b3          	or	t2,s6,t2
   1478e:	009e60b3          	or	ra,t3,s1
   14792:	005a62b3          	or	t0,s4,t0
   14796:	02d31493          	slli	s1,t1,0x2d
   1479a:	011ae8b3          	or	a7,s5,a7
   1479e:	0109e833          	or	a6,s3,a6
   147a2:	00f967b3          	or	a5,s2,a5
   147a6:	01335e13          	srli	t3,t1,0x13
   147aa:	009e6e33          	or	t3,t3,s1
   147ae:	01f6cfb3          	xor	t6,a3,t6
   147b2:	0113c8b3          	xor	a7,t2,a7
   147b6:	0102c833          	xor	a6,t0,a6
   147ba:	0017c7b3          	xor	a5,a5,ra
   147be:	01c35293          	srli	t0,t1,0x1c
   147c2:	1312                	c.slli	t1,0x24
   147c4:	00e8c8b3          	xor	a7,a7,a4
   147c8:	00a84833          	xor	a6,a6,a0
   147cc:	01fe4733          	xor	a4,t3,t6
   147d0:	8fb1                	c.xor	a5,a2
   147d2:	01d6c6b3          	xor	a3,a3,t4
   147d6:	0062e633          	or	a2,t0,t1
   147da:	00c74eb3          	xor	t4,a4,a2
   147de:	0106c6b3          	xor	a3,a3,a6
   147e2:	0117c7b3          	xor	a5,a5,a7
   147e6:	0697cf93          	xori	t6,a5,105
   147ea:	fff8ce13          	xori	t3,a7,-1
   147ee:	fff84613          	xori	a2,a6,-1
   147f2:	fffec313          	xori	t1,t4,-1
   147f6:	f967c713          	xori	a4,a5,-106
   147fa:	fff6c513          	xori	a0,a3,-1
   147fe:	01fe7e33          	and	t3,t3,t6
   14802:	8e75                	c.and	a2,a3
   14804:	01137333          	and	t1,t1,a7
   14808:	01077733          	and	a4,a4,a6
   1480c:	01d57533          	and	a0,a0,t4
   14810:	00d34333          	xor	t1,t1,a3
   14814:	01de4e33          	xor	t3,t3,t4
   14818:	01f64633          	xor	a2,a2,t6
   1481c:	01174733          	xor	a4,a4,a7
   14820:	01054533          	xor	a0,a0,a6
   14824:	01c74733          	xor	a4,a4,t3
   14828:	8d31                	c.xor	a0,a2
   1482a:	03931f93          	slli	t6,t1,0x39
   1482e:	fff64613          	xori	a2,a2,-1
   14832:	02935793          	srli	a5,t1,0x29
   14836:	00735693          	srli	a3,t1,0x7
   1483a:	01731093          	slli	ra,t1,0x17
   1483e:	006e4eb3          	xor	t4,t3,t1
   14842:	00371b13          	slli	s6,a4,0x3
   14846:	01971a93          	slli	s5,a4,0x19
   1484a:	00a55a13          	srli	s4,a0,0xa
   1484e:	01155993          	srli	s3,a0,0x11
   14852:	00f0e0b3          	or	ra,ra,a5
   14856:	00165913          	srli	s2,a2,0x1
   1485a:	03a61493          	slli	s1,a2,0x3a
   1485e:	03d75393          	srli	t2,a4,0x3d
   14862:	02775893          	srli	a7,a4,0x27
   14866:	03651293          	slli	t0,a0,0x36
   1486a:	02f51813          	slli	a6,a0,0x2f
   1486e:	01f6e6b3          	or	a3,a3,t6
   14872:	03f61793          	slli	a5,a2,0x3f
   14876:	00665f93          	srli	t6,a2,0x6
   1487a:	0016c6b3          	xor	a3,a3,ra
   1487e:	007b63b3          	or	t2,s6,t2
   14882:	009fe0b3          	or	ra,t6,s1
   14886:	005a62b3          	or	t0,s4,t0
   1488a:	02de9493          	slli	s1,t4,0x2d
   1488e:	011ae8b3          	or	a7,s5,a7
   14892:	0109e833          	or	a6,s3,a6
   14896:	00f967b3          	or	a5,s2,a5
   1489a:	013edf93          	srli	t6,t4,0x13
   1489e:	009fefb3          	or	t6,t6,s1
   148a2:	01c6ce33          	xor	t3,a3,t3
   148a6:	0113c8b3          	xor	a7,t2,a7
   148aa:	0102c833          	xor	a6,t0,a6
   148ae:	0017c7b3          	xor	a5,a5,ra
   148b2:	01ced293          	srli	t0,t4,0x1c
   148b6:	1e92                	c.slli	t4,0x24
   148b8:	00e8c8b3          	xor	a7,a7,a4
   148bc:	00a84833          	xor	a6,a6,a0
   148c0:	01cfc733          	xor	a4,t6,t3
   148c4:	8fb1                	c.xor	a5,a2
   148c6:	0066c6b3          	xor	a3,a3,t1
   148ca:	01d2e633          	or	a2,t0,t4
   148ce:	8f31                	c.xor	a4,a2
   148d0:	0106c6b3          	xor	a3,a3,a6
   148d4:	0117c7b3          	xor	a5,a5,a7
   148d8:	05a7ce93          	xori	t4,a5,90
   148dc:	fff8ce13          	xori	t3,a7,-1
   148e0:	fff84613          	xori	a2,a6,-1
   148e4:	fff74313          	xori	t1,a4,-1
   148e8:	fff6c513          	xori	a0,a3,-1
   148ec:	fa57c793          	xori	a5,a5,-91
   148f0:	01de7e33          	and	t3,t3,t4
   148f4:	8e75                	c.and	a2,a3
   148f6:	01137333          	and	t1,t1,a7
   148fa:	0107f7b3          	and	a5,a5,a6
   148fe:	8d79                	c.and	a0,a4
   14900:	00d34333          	xor	t1,t1,a3
   14904:	00ee4e33          	xor	t3,t3,a4
   14908:	01d64633          	xor	a2,a2,t4
   1490c:	0117c7b3          	xor	a5,a5,a7
   14910:	01054533          	xor	a0,a0,a6
   14914:	01c7c7b3          	xor	a5,a5,t3
   14918:	8d31                	c.xor	a0,a2
   1491a:	03931f93          	slli	t6,t1,0x39
   1491e:	fff64613          	xori	a2,a2,-1
   14922:	02935713          	srli	a4,t1,0x29
   14926:	00735693          	srli	a3,t1,0x7
   1492a:	01731093          	slli	ra,t1,0x17
   1492e:	006e4eb3          	xor	t4,t3,t1
   14932:	00379b13          	slli	s6,a5,0x3
   14936:	01979a93          	slli	s5,a5,0x19
   1493a:	00e0e0b3          	or	ra,ra,a4
   1493e:	00165913          	srli	s2,a2,0x1
   14942:	03d7d393          	srli	t2,a5,0x3d
   14946:	0277d893          	srli	a7,a5,0x27
   1494a:	01f6e6b3          	or	a3,a3,t6
   1494e:	03f61713          	slli	a4,a2,0x3f
   14952:	00665f93          	srli	t6,a2,0x6
   14956:	03a61493          	slli	s1,a2,0x3a
   1495a:	03651293          	slli	t0,a0,0x36
   1495e:	01155993          	srli	s3,a0,0x11
   14962:	0016c6b3          	xor	a3,a3,ra
   14966:	007b63b3          	or	t2,s6,t2
   1496a:	009fe4b3          	or	s1,t6,s1
   1496e:	013ed093          	srli	ra,t4,0x13
   14972:	02de9f93          	slli	t6,t4,0x2d
   14976:	00a55a13          	srli	s4,a0,0xa
   1497a:	02f51813          	slli	a6,a0,0x2f
   1497e:	011ae8b3          	or	a7,s5,a7
   14982:	00e96733          	or	a4,s2,a4
   14986:	005a6a33          	or	s4,s4,t0
   1498a:	0113c8b3          	xor	a7,t2,a7
   1498e:	8f25                	c.xor	a4,s1
   14990:	01f0e3b3          	or	t2,ra,t6
   14994:	01c6ce33          	xor	t3,a3,t3
   14998:	01ced093          	srli	ra,t4,0x1c
   1499c:	0109e833          	or	a6,s3,a6
   149a0:	1e92                	c.slli	t4,0x24
   149a2:	00f8c2b3          	xor	t0,a7,a5
   149a6:	010a4833          	xor	a6,s4,a6
   149aa:	00c747b3          	xor	a5,a4,a2
   149ae:	01d0e633          	or	a2,ra,t4
   149b2:	01c3c733          	xor	a4,t2,t3
   149b6:	00a84fb3          	xor	t6,a6,a0
   149ba:	8f31                	c.xor	a4,a2
   149bc:	0057c7b3          	xor	a5,a5,t0
   149c0:	0066c6b3          	xor	a3,a3,t1
   149c4:	01f6c6b3          	xor	a3,a3,t6
   149c8:	04b7c613          	xori	a2,a5,75
   149cc:	fff2c513          	xori	a0,t0,-1
   149d0:	fff74e13          	xori	t3,a4,-1
   149d4:	fb47c793          	xori	a5,a5,-76
   149d8:	ffffc813          	xori	a6,t6,-1
   149dc:	fff6c893          	xori	a7,a3,-1
   149e0:	8d71                	c.and	a0,a2
   149e2:	005e7e33          	and	t3,t3,t0
   149e6:	01f7f7b3          	and	a5,a5,t6
   149ea:	00de4e33          	xor	t3,t3,a3
   149ee:	8d39                	c.xor	a0,a4
   149f0:	00d87833          	and	a6,a6,a3
   149f4:	00e8f8b3          	and	a7,a7,a4
   149f8:	0057c7b3          	xor	a5,a5,t0
   149fc:	8fa9                	c.xor	a5,a0
   149fe:	00c84833          	xor	a6,a6,a2
   14a02:	01c54533          	xor	a0,a0,t3
   14a06:	01f8c8b3          	xor	a7,a7,t6
   14a0a:	0108c8b3          	xor	a7,a7,a6
   14a0e:	01355693          	srli	a3,a0,0x13
   14a12:	02d51d93          	slli	s11,a0,0x2d
   14a16:	01c55493          	srli	s1,a0,0x1c
   14a1a:	02451d13          	slli	s10,a0,0x24
   14a1e:	00a8da93          	srli	s5,a7,0xa
   14a22:	03689613          	slli	a2,a7,0x36
   14a26:	0118da13          	srli	s4,a7,0x11
   14a2a:	02f89293          	slli	t0,a7,0x2f
   14a2e:	01b6e6b3          	or	a3,a3,s11
   14a32:	01a4e4b3          	or	s1,s1,s10
   14a36:	fff84813          	xori	a6,a6,-1
   14a3a:	029e5f93          	srli	t6,t3,0x29
   14a3e:	00cae633          	or	a2,s5,a2
   14a42:	8ea5                	c.xor	a3,s1
   14a44:	017e1913          	slli	s2,t3,0x17
   14a48:	005a62b3          	or	t0,s4,t0
   14a4c:	00379313          	slli	t1,a5,0x3
   14a50:	03d7dc93          	srli	s9,a5,0x3d
   14a54:	01979093          	slli	ra,a5,0x19
   14a58:	0277dc13          	srli	s8,a5,0x27
   14a5c:	01f96933          	or	s2,s2,t6
   14a60:	00185713          	srli	a4,a6,0x1
   14a64:	00564fb3          	xor	t6,a2,t0
   14a68:	03f81b93          	slli	s7,a6,0x3f
   14a6c:	00a6c633          	xor	a2,a3,a0
   14a70:	00685393          	srli	t2,a6,0x6
   14a74:	03a81b13          	slli	s6,a6,0x3a
   14a78:	007e5993          	srli	s3,t3,0x7
   14a7c:	039e1e93          	slli	t4,t3,0x39
   14a80:	6682                	c.ldsp	a3,0(sp)
   14a82:	01936333          	or	t1,t1,s9
   14a86:	0180e0b3          	or	ra,ra,s8
   14a8a:	01776733          	or	a4,a4,s7
   14a8e:	0163e3b3          	or	t2,t2,s6
   14a92:	01d9eeb3          	or	t4,s3,t4
   14a96:	00134333          	xor	t1,t1,ra
   14a9a:	00774733          	xor	a4,a4,t2
   14a9e:	012eceb3          	xor	t4,t4,s2
   14aa2:	0421                	c.addi	s0,8
   14aa4:	00f34533          	xor	a0,t1,a5
   14aa8:	01074733          	xor	a4,a4,a6
   14aac:	011fcfb3          	xor	t6,t6,a7
   14ab0:	01cec7b3          	xor	a5,t4,t3
   14ab4:	0f21                	c.addi	t5,8
   14ab6:	a0d419e3          	bne	s0,a3,144c8 <crypto_aead_decrypt_debug+0x774>
   14aba:	7082                	c.ldsp	ra,32(sp)
   14abc:	7a22                	c.ldsp	s4,40(sp)
   14abe:	6ae2                	c.ldsp	s5,24(sp)
   14ac0:	7bc2                	c.ldsp	s7,48(sp)
   14ac2:	69a2                	c.ldsp	s3,8(sp)
   14ac4:	6942                	c.ldsp	s2,16(sp)
   14ac6:	008e                	c.slli	ra,0x3
   14ac8:	9bd2                	c.add	s7,s4
   14aca:	f8fe                	c.sdsp	t6,112(sp)
   14acc:	401a8a33          	sub	s4,s5,ra
   14ad0:	fcbe                	c.sdsp	a5,120(sp)
   14ad2:	c0102e73          	csrrs	t3,time,zero
   14ad6:	000a079b          	addiw	a5,s4,0
   14ada:	c3a5                	c.beqz	a5,14b3a <crypto_aead_decrypt_debug+0xde6>
   14adc:	414005bb          	subw	a1,zero,s4
   14ae0:	0035959b          	slliw	a1,a1,0x3
   14ae4:	885e                	c.mv	a6,s7
   14ae6:	0385859b          	addiw	a1,a1,56
   14aea:	03800793          	addi	a5,zero,56
   14aee:	4881                	c.li	a7,0
   14af0:	00084683          	lbu	a3,0(a6)
   14af4:	0805                	c.addi	a6,1
   14af6:	00f696b3          	sll	a3,a3,a5
   14afa:	37e1                	c.addiw	a5,-8
   14afc:	00d8e8b3          	or	a7,a7,a3
   14b00:	feb798e3          	bne	a5,a1,14af0 <crypto_aead_decrypt_debug+0xd9c>
   14b04:	6782                	c.ldsp	a5,0(sp)
   14b06:	00c8c333          	xor	t1,a7,a2
   14b0a:	03800693          	addi	a3,zero,56
   14b0e:	00d35833          	srl	a6,t1,a3
   14b12:	01078023          	sb	a6,0(a5)
   14b16:	36e1                	c.addiw	a3,-8
   14b18:	0785                	c.addi	a5,1
   14b1a:	feb69ae3          	bne	a3,a1,14b0e <crypto_aead_decrypt_debug+0xdba>
   14b1e:	03800793          	addi	a5,zero,56
   14b22:	0ff00813          	addi	a6,zero,255
   14b26:	00f816b3          	sll	a3,a6,a5
   14b2a:	fff6c693          	xori	a3,a3,-1
   14b2e:	37e1                	c.addiw	a5,-8
   14b30:	8e75                	c.and	a2,a3
   14b32:	feb79ae3          	bne	a5,a1,14b26 <crypto_aead_decrypt_debug+0xdd2>
   14b36:	01166633          	or	a2,a2,a7
   14b3a:	469d                	c.li	a3,7
   14b3c:	414686b3          	sub	a3,a3,s4
   14b40:	0036969b          	slliw	a3,a3,0x3
   14b44:	08000793          	addi	a5,zero,128
   14b48:	00d797b3          	sll	a5,a5,a3
   14b4c:	8fb1                	c.xor	a5,a2
   14b4e:	ecbe                	c.sdsp	a5,88(sp)
   14b50:	c01026f3          	csrrs	a3,time,zero
   14b54:	766e                	c.ldsp	a2,248(sp)
   14b56:	41c686b3          	sub	a3,a3,t3
   14b5a:	00a947b3          	xor	a5,s2,a0
   14b5e:	00e9c733          	xor	a4,s3,a4
   14b62:	e214                	c.sd	a3,0(a2)
   14b64:	08a8                	c.addi4spn	a0,sp,88
   14b66:	f0be                	c.sdsp	a5,96(sp)
   14b68:	f4ba                	c.sdsp	a4,104(sp)
   14b6a:	98dfc0ef          	jal	ra,114f6 <P12>
   14b6e:	7746                	c.ldsp	a4,112(sp)
   14b70:	00bc                	c.addi4spn	a5,sp,72
   14b72:	86be                	c.mv	a3,a5
   14b74:	00e94933          	xor	s2,s2,a4
   14b78:	7766                	c.ldsp	a4,120(sp)
   14b7a:	55e1                	c.li	a1,-8
   14b7c:	00e9c9b3          	xor	s3,s3,a4
   14b80:	03800713          	addi	a4,zero,56
   14b84:	00e95633          	srl	a2,s2,a4
   14b88:	00c68023          	sb	a2,0(a3)
   14b8c:	3761                	c.addiw	a4,-8
   14b8e:	0685                	c.addi	a3,1
   14b90:	feb71ae3          	bne	a4,a1,14b84 <crypto_aead_decrypt_debug+0xe30>
   14b94:	86be                	c.mv	a3,a5
   14b96:	03800713          	addi	a4,zero,56
   14b9a:	55e1                	c.li	a1,-8
   14b9c:	00e9d633          	srl	a2,s3,a4
   14ba0:	00c68423          	sb	a2,8(a3)
   14ba4:	3761                	c.addiw	a4,-8
   14ba6:	0685                	c.addi	a3,1
   14ba8:	feb71ae3          	bne	a4,a1,14b9c <crypto_aead_decrypt_debug+0xe48>
   14bac:	9bd2                	c.add	s7,s4
   14bae:	01078593          	addi	a1,a5,16
   14bb2:	4681                	c.li	a3,0
   14bb4:	000bc703          	lbu	a4,0(s7)
   14bb8:	0007c603          	lbu	a2,0(a5)
   14bbc:	0785                	c.addi	a5,1
   14bbe:	0b85                	c.addi	s7,1
   14bc0:	8f31                	c.xor	a4,a2
   14bc2:	8ed9                	c.or	a3,a4
   14bc4:	feb798e3          	bne	a5,a1,14bb4 <crypto_aead_decrypt_debug+0xe60>
   14bc8:	fff6851b          	addiw	a0,a3,-1
   14bcc:	4085551b          	sraiw	a0,a0,0x8
   14bd0:	8905                	c.andi	a0,1
   14bd2:	357d                	c.addiw	a0,-1
   14bd4:	70ae                	c.ldsp	ra,232(sp)
   14bd6:	740e                	c.ldsp	s0,224(sp)
   14bd8:	64ee                	c.ldsp	s1,216(sp)
   14bda:	694e                	c.ldsp	s2,208(sp)
   14bdc:	69ae                	c.ldsp	s3,200(sp)
   14bde:	6a0e                	c.ldsp	s4,192(sp)
   14be0:	7aea                	c.ldsp	s5,184(sp)
   14be2:	7b4a                	c.ldsp	s6,176(sp)
   14be4:	7baa                	c.ldsp	s7,168(sp)
   14be6:	7c0a                	c.ldsp	s8,160(sp)
   14be8:	6cea                	c.ldsp	s9,152(sp)
   14bea:	6d4a                	c.ldsp	s10,144(sp)
   14bec:	6daa                	c.ldsp	s11,136(sp)
   14bee:	616d                	c.addi16sp	sp,240
   14bf0:	8082                	c.jr	ra
   14bf2:	e022                	c.sdsp	s0,0(sp)
   14bf4:	bdf9                	c.j	14ad2 <crypto_aead_decrypt_debug+0xd7e>
   14bf6:	4a81                	c.li	s5,0
   14bf8:	b8a5                	c.j	14470 <crypto_aead_decrypt_debug+0x71c>
   14bfa:	000a881b          	addiw	a6,s5,0
   14bfe:	e026                	c.sdsp	s1,0(sp)
   14c00:	b0a9                	c.j	1444a <crypto_aead_decrypt_debug+0x6f6>
   14c02:	557d                	c.li	a0,-1
   14c04:	bfc1                	c.j	14bd4 <crypto_aead_decrypt_debug+0xe80>

0000000000014c06 <crypto_aead_encrypt_opt64>:
   14c06:	7171                	c.addi16sp	sp,-176
   14c08:	784a                	c.ldsp	a6,176(sp)
   14c0a:	0008bf03          	ld	t5,0(a7)
   14c0e:	0088be83          	ld	t4,8(a7)
   14c12:	00083f83          	ld	t6,0(a6)
   14c16:	00883e03          	ld	t3,8(a6)
   14c1a:	e94a                	c.sdsp	s2,144(sp)
   14c1c:	f4de                	c.sdsp	s7,104(sp)
